	.file	"main.cpp"
	.text
	.section	.text._ZnwmPv,"axG",@progbits,_ZnwmPv,comdat
	.weak	_ZnwmPv
	.type	_ZnwmPv, @function
_ZnwmPv:
.LFB364:
	.cfi_startproc
	pushq	%rbp
	.cfi_def_cfa_offset 16
	.cfi_offset 6, -16
	movq	%rsp, %rbp
	.cfi_def_cfa_register 6
	movq	%rdi, -8(%rbp)
	movq	%rsi, -16(%rbp)
	movq	-16(%rbp), %rax
	popq	%rbp
	.cfi_def_cfa 7, 8
	ret
	.cfi_endproc
.LFE364:
	.size	_ZnwmPv, .-_ZnwmPv
	.section	.text._ZNSt10_Hash_impl4hashEPKvmm,"axG",@progbits,_ZNSt10_Hash_impl4hashEPKvmm,comdat
	.weak	_ZNSt10_Hash_impl4hashEPKvmm
	.type	_ZNSt10_Hash_impl4hashEPKvmm, @function
_ZNSt10_Hash_impl4hashEPKvmm:
.LFB677:
	.cfi_startproc
	pushq	%rbp
	.cfi_def_cfa_offset 16
	.cfi_offset 6, -16
	movq	%rsp, %rbp
	.cfi_def_cfa_register 6
	subq	$32, %rsp
	movq	%rdi, -8(%rbp)
	movq	%rsi, -16(%rbp)
	movq	%rdx, -24(%rbp)
	movq	-24(%rbp), %rdx
	movq	-16(%rbp), %rcx
	movq	-8(%rbp), %rax
	movq	%rcx, %rsi
	movq	%rax, %rdi
	call	_ZSt11_Hash_bytesPKvmm@PLT
	leave
	.cfi_def_cfa 7, 8
	ret
	.cfi_endproc
.LFE677:
	.size	_ZNSt10_Hash_impl4hashEPKvmm, .-_ZNSt10_Hash_impl4hashEPKvmm
	.section	.text._ZNSt11char_traitsIcE7compareEPKcS2_m,"axG",@progbits,_ZNSt11char_traitsIcE7compareEPKcS2_m,comdat
	.weak	_ZNSt11char_traitsIcE7compareEPKcS2_m
	.type	_ZNSt11char_traitsIcE7compareEPKcS2_m, @function
_ZNSt11char_traitsIcE7compareEPKcS2_m:
.LFB929:
	.cfi_startproc
	pushq	%rbp
	.cfi_def_cfa_offset 16
	.cfi_offset 6, -16
	movq	%rsp, %rbp
	.cfi_def_cfa_register 6
	subq	$32, %rsp
	movq	%rdi, -8(%rbp)
	movq	%rsi, -16(%rbp)
	movq	%rdx, -24(%rbp)
	cmpq	$0, -24(%rbp)
	jne	.L6
	movl	$0, %eax
	jmp	.L7
.L6:
	movl	$0, %eax
	testb	%al, %al
	je	.L8
	movq	-24(%rbp), %rdx
	movq	-16(%rbp), %rcx
	movq	-8(%rbp), %rax
	movq	%rcx, %rsi
	movq	%rax, %rdi
	call	_ZN9__gnu_cxx11char_traitsIcE7compareEPKcS3_m
	jmp	.L7
.L8:
	movq	-24(%rbp), %rdx
	movq	-16(%rbp), %rcx
	movq	-8(%rbp), %rax
	movq	%rcx, %rsi
	movq	%rax, %rdi
	call	memcmp@PLT
	nop
.L7:
	leave
	.cfi_def_cfa 7, 8
	ret
	.cfi_endproc
.LFE929:
	.size	_ZNSt11char_traitsIcE7compareEPKcS2_m, .-_ZNSt11char_traitsIcE7compareEPKcS2_m
	.section	.rodata
.LC0:
	.string	"%d"
	.section	.text._ZNSt7__cxx119to_stringEi,"axG",@progbits,_ZNSt7__cxx119to_stringEi,comdat
	.weak	_ZNSt7__cxx119to_stringEi
	.type	_ZNSt7__cxx119to_stringEi, @function
_ZNSt7__cxx119to_stringEi:
.LFB1636:
	.cfi_startproc
	pushq	%rbp
	.cfi_def_cfa_offset 16
	.cfi_offset 6, -16
	movq	%rsp, %rbp
	.cfi_def_cfa_register 6
	subq	$32, %rsp
	movq	%rdi, -24(%rbp)
	movl	%esi, -28(%rbp)
	movq	%fs:40, %rax
	movq	%rax, -8(%rbp)
	xorl	%eax, %eax
	movq	-24(%rbp), %rax
	movl	-28(%rbp), %edx
	movl	%edx, %r8d
	leaq	.LC0(%rip), %rcx
	movl	$16, %edx
	movq	vsnprintf@GOTPCREL(%rip), %rsi
	movq	%rax, %rdi
	movl	$0, %eax
	call	_ZN9__gnu_cxx12__to_xstringINSt7__cxx1112basic_stringIcSt11char_traitsIcESaIcEEEcEET_PFiPT0_mPKS8_P13__va_list_tagEmSB_z
	movq	-8(%rbp), %rax
	xorq	%fs:40, %rax
	je	.L11
	call	__stack_chk_fail@PLT
.L11:
	movq	-24(%rbp), %rax
	leave
	.cfi_def_cfa 7, 8
	ret
	.cfi_endproc
.LFE1636:
	.size	_ZNSt7__cxx119to_stringEi, .-_ZNSt7__cxx119to_stringEi
	.section	.text._ZNKSt4hashINSt7__cxx1112basic_stringIcSt11char_traitsIcESaIcEEEEclERKS5_,"axG",@progbits,_ZNKSt4hashINSt7__cxx1112basic_stringIcSt11char_traitsIcESaIcEEEEclERKS5_,comdat
	.align 2
	.weak	_ZNKSt4hashINSt7__cxx1112basic_stringIcSt11char_traitsIcESaIcEEEEclERKS5_
	.type	_ZNKSt4hashINSt7__cxx1112basic_stringIcSt11char_traitsIcESaIcEEEEclERKS5_, @function
_ZNKSt4hashINSt7__cxx1112basic_stringIcSt11char_traitsIcESaIcEEEEclERKS5_:
.LFB1662:
	.cfi_startproc
	.cfi_personality 0x9b,DW.ref.__gxx_personality_v0
	.cfi_lsda 0x1b,.LLSDA1662
	pushq	%rbp
	.cfi_def_cfa_offset 16
	.cfi_offset 6, -16
	movq	%rsp, %rbp
	.cfi_def_cfa_register 6
	pushq	%rbx
	subq	$24, %rsp
	.cfi_offset 3, -24
	movq	%rdi, -24(%rbp)
	movq	%rsi, -32(%rbp)
	movq	-32(%rbp), %rax
	movq	%rax, %rdi
	call	_ZNKSt7__cxx1112basic_stringIcSt11char_traitsIcESaIcEE6lengthEv@PLT
	movq	%rax, %rbx
	movq	-32(%rbp), %rax
	movq	%rax, %rdi
	call	_ZNKSt7__cxx1112basic_stringIcSt11char_traitsIcESaIcEE4dataEv@PLT
	movl	$3339675911, %edx
	movq	%rbx, %rsi
	movq	%rax, %rdi
	call	_ZNSt10_Hash_impl4hashEPKvmm
	addq	$24, %rsp
	popq	%rbx
	popq	%rbp
	.cfi_def_cfa 7, 8
	ret
	.cfi_endproc
.LFE1662:
	.globl	__gxx_personality_v0
	.section	.gcc_except_table._ZNKSt4hashINSt7__cxx1112basic_stringIcSt11char_traitsIcESaIcEEEEclERKS5_,"aG",@progbits,_ZNKSt4hashINSt7__cxx1112basic_stringIcSt11char_traitsIcESaIcEEEEclERKS5_,comdat
.LLSDA1662:
	.byte	0xff
	.byte	0xff
	.byte	0x1
	.uleb128 .LLSDACSE1662-.LLSDACSB1662
.LLSDACSB1662:
.LLSDACSE1662:
	.section	.text._ZNKSt4hashINSt7__cxx1112basic_stringIcSt11char_traitsIcESaIcEEEEclERKS5_,"axG",@progbits,_ZNKSt4hashINSt7__cxx1112basic_stringIcSt11char_traitsIcESaIcEEEEclERKS5_,comdat
	.size	_ZNKSt4hashINSt7__cxx1112basic_stringIcSt11char_traitsIcESaIcEEEEclERKS5_, .-_ZNKSt4hashINSt7__cxx1112basic_stringIcSt11char_traitsIcESaIcEEEEclERKS5_
	.local	_ZStL8__ioinit
	.comm	_ZStL8__ioinit,1,1
	.section	.text._ZSt3minImERKT_S2_S2_,"axG",@progbits,_ZSt3minImERKT_S2_S2_,comdat
	.weak	_ZSt3minImERKT_S2_S2_
	.type	_ZSt3minImERKT_S2_S2_, @function
_ZSt3minImERKT_S2_S2_:
.LFB2606:
	.cfi_startproc
	pushq	%rbp
	.cfi_def_cfa_offset 16
	.cfi_offset 6, -16
	movq	%rsp, %rbp
	.cfi_def_cfa_register 6
	movq	%rdi, -8(%rbp)
	movq	%rsi, -16(%rbp)
	movq	-16(%rbp), %rax
	movq	(%rax), %rdx
	movq	-8(%rbp), %rax
	movq	(%rax), %rax
	cmpq	%rax, %rdx
	jnb	.L15
	movq	-16(%rbp), %rax
	jmp	.L16
.L15:
	movq	-8(%rbp), %rax
.L16:
	popq	%rbp
	.cfi_def_cfa 7, 8
	ret
	.cfi_endproc
.LFE2606:
	.size	_ZSt3minImERKT_S2_S2_, .-_ZSt3minImERKT_S2_S2_
	.section	.text._ZN5MaybeIvEC2ESt10error_code,"axG",@progbits,_ZN5MaybeIvEC5ESt10error_code,comdat
	.align 2
	.weak	_ZN5MaybeIvEC2ESt10error_code
	.type	_ZN5MaybeIvEC2ESt10error_code, @function
_ZN5MaybeIvEC2ESt10error_code:
.LFB3146:
	.cfi_startproc
	pushq	%rbp
	.cfi_def_cfa_offset 16
	.cfi_offset 6, -16
	movq	%rsp, %rbp
	.cfi_def_cfa_register 6
	movq	%rdi, -8(%rbp)
	movq	%rdx, %rcx
	movq	%rsi, %rax
	movq	%rdi, %rdx
	movq	%rcx, %rdx
	movq	%rax, -32(%rbp)
	movq	%rdx, -24(%rbp)
	movq	-8(%rbp), %rcx
	movq	-32(%rbp), %rax
	movq	-24(%rbp), %rdx
	movq	%rax, (%rcx)
	movq	%rdx, 8(%rcx)
	nop
	popq	%rbp
	.cfi_def_cfa 7, 8
	ret
	.cfi_endproc
.LFE3146:
	.size	_ZN5MaybeIvEC2ESt10error_code, .-_ZN5MaybeIvEC2ESt10error_code
	.weak	_ZN5MaybeIvEC1ESt10error_code
	.set	_ZN5MaybeIvEC1ESt10error_code,_ZN5MaybeIvEC2ESt10error_code
	.section	.text._ZN7HashMapINSt7__cxx1112basic_stringIcSt11char_traitsIcESaIcEEEiSt4hashIS5_EED2Ev,"axG",@progbits,_ZN7HashMapINSt7__cxx1112basic_stringIcSt11char_traitsIcESaIcEEEiSt4hashIS5_EED5Ev,comdat
	.align 2
	.weak	_ZN7HashMapINSt7__cxx1112basic_stringIcSt11char_traitsIcESaIcEEEiSt4hashIS5_EED2Ev
	.type	_ZN7HashMapINSt7__cxx1112basic_stringIcSt11char_traitsIcESaIcEEEiSt4hashIS5_EED2Ev, @function
_ZN7HashMapINSt7__cxx1112basic_stringIcSt11char_traitsIcESaIcEEEiSt4hashIS5_EED2Ev:
.LFB3169:
	.cfi_startproc
	pushq	%rbp
	.cfi_def_cfa_offset 16
	.cfi_offset 6, -16
	movq	%rsp, %rbp
	.cfi_def_cfa_register 6
	subq	$16, %rsp
	movq	%rdi, -8(%rbp)
	movq	-8(%rbp), %rax
	addq	$16, %rax
	movq	%rax, %rdi
	call	_ZNSt6vectorIN7HashMapINSt7__cxx1112basic_stringIcSt11char_traitsIcESaIcEEEiSt4hashIS6_EE7ElementESaISA_EED1Ev
	nop
	leave
	.cfi_def_cfa 7, 8
	ret
	.cfi_endproc
.LFE3169:
	.size	_ZN7HashMapINSt7__cxx1112basic_stringIcSt11char_traitsIcESaIcEEEiSt4hashIS5_EED2Ev, .-_ZN7HashMapINSt7__cxx1112basic_stringIcSt11char_traitsIcESaIcEEEiSt4hashIS5_EED2Ev
	.weak	_ZN7HashMapINSt7__cxx1112basic_stringIcSt11char_traitsIcESaIcEEEiSt4hashIS5_EED1Ev
	.set	_ZN7HashMapINSt7__cxx1112basic_stringIcSt11char_traitsIcESaIcEEEiSt4hashIS5_EED1Ev,_ZN7HashMapINSt7__cxx1112basic_stringIcSt11char_traitsIcESaIcEEEiSt4hashIS5_EED2Ev
	.section	.text._ZNSt12_Vector_baseINSt7__cxx1112basic_stringIcSt11char_traitsIcESaIcEEESaIS5_EE12_Vector_implD2Ev,"axG",@progbits,_ZNSt12_Vector_baseINSt7__cxx1112basic_stringIcSt11char_traitsIcESaIcEEESaIS5_EE12_Vector_implD5Ev,comdat
	.align 2
	.weak	_ZNSt12_Vector_baseINSt7__cxx1112basic_stringIcSt11char_traitsIcESaIcEEESaIS5_EE12_Vector_implD2Ev
	.type	_ZNSt12_Vector_baseINSt7__cxx1112basic_stringIcSt11char_traitsIcESaIcEEESaIS5_EE12_Vector_implD2Ev, @function
_ZNSt12_Vector_baseINSt7__cxx1112basic_stringIcSt11char_traitsIcESaIcEEESaIS5_EE12_Vector_implD2Ev:
.LFB3174:
	.cfi_startproc
	pushq	%rbp
	.cfi_def_cfa_offset 16
	.cfi_offset 6, -16
	movq	%rsp, %rbp
	.cfi_def_cfa_register 6
	subq	$16, %rsp
	movq	%rdi, -8(%rbp)
	movq	-8(%rbp), %rax
	movq	%rax, %rdi
	call	_ZNSaINSt7__cxx1112basic_stringIcSt11char_traitsIcESaIcEEEED2Ev
	nop
	leave
	.cfi_def_cfa 7, 8
	ret
	.cfi_endproc
.LFE3174:
	.size	_ZNSt12_Vector_baseINSt7__cxx1112basic_stringIcSt11char_traitsIcESaIcEEESaIS5_EE12_Vector_implD2Ev, .-_ZNSt12_Vector_baseINSt7__cxx1112basic_stringIcSt11char_traitsIcESaIcEEESaIS5_EE12_Vector_implD2Ev
	.weak	_ZNSt12_Vector_baseINSt7__cxx1112basic_stringIcSt11char_traitsIcESaIcEEESaIS5_EE12_Vector_implD1Ev
	.set	_ZNSt12_Vector_baseINSt7__cxx1112basic_stringIcSt11char_traitsIcESaIcEEESaIS5_EE12_Vector_implD1Ev,_ZNSt12_Vector_baseINSt7__cxx1112basic_stringIcSt11char_traitsIcESaIcEEESaIS5_EE12_Vector_implD2Ev
	.section	.text._ZNSt12_Vector_baseINSt7__cxx1112basic_stringIcSt11char_traitsIcESaIcEEESaIS5_EEC2Ev,"axG",@progbits,_ZNSt12_Vector_baseINSt7__cxx1112basic_stringIcSt11char_traitsIcESaIcEEESaIS5_EEC5Ev,comdat
	.align 2
	.weak	_ZNSt12_Vector_baseINSt7__cxx1112basic_stringIcSt11char_traitsIcESaIcEEESaIS5_EEC2Ev
	.type	_ZNSt12_Vector_baseINSt7__cxx1112basic_stringIcSt11char_traitsIcESaIcEEESaIS5_EEC2Ev, @function
_ZNSt12_Vector_baseINSt7__cxx1112basic_stringIcSt11char_traitsIcESaIcEEESaIS5_EEC2Ev:
.LFB3176:
	.cfi_startproc
	pushq	%rbp
	.cfi_def_cfa_offset 16
	.cfi_offset 6, -16
	movq	%rsp, %rbp
	.cfi_def_cfa_register 6
	subq	$16, %rsp
	movq	%rdi, -8(%rbp)
	movq	-8(%rbp), %rax
	movq	%rax, %rdi
	call	_ZNSt12_Vector_baseINSt7__cxx1112basic_stringIcSt11char_traitsIcESaIcEEESaIS5_EE12_Vector_implC1Ev
	nop
	leave
	.cfi_def_cfa 7, 8
	ret
	.cfi_endproc
.LFE3176:
	.size	_ZNSt12_Vector_baseINSt7__cxx1112basic_stringIcSt11char_traitsIcESaIcEEESaIS5_EEC2Ev, .-_ZNSt12_Vector_baseINSt7__cxx1112basic_stringIcSt11char_traitsIcESaIcEEESaIS5_EEC2Ev
	.weak	_ZNSt12_Vector_baseINSt7__cxx1112basic_stringIcSt11char_traitsIcESaIcEEESaIS5_EEC1Ev
	.set	_ZNSt12_Vector_baseINSt7__cxx1112basic_stringIcSt11char_traitsIcESaIcEEESaIS5_EEC1Ev,_ZNSt12_Vector_baseINSt7__cxx1112basic_stringIcSt11char_traitsIcESaIcEEESaIS5_EEC2Ev
	.section	.text._ZNSt6vectorINSt7__cxx1112basic_stringIcSt11char_traitsIcESaIcEEESaIS5_EEC2Ev,"axG",@progbits,_ZNSt6vectorINSt7__cxx1112basic_stringIcSt11char_traitsIcESaIcEEESaIS5_EEC5Ev,comdat
	.align 2
	.weak	_ZNSt6vectorINSt7__cxx1112basic_stringIcSt11char_traitsIcESaIcEEESaIS5_EEC2Ev
	.type	_ZNSt6vectorINSt7__cxx1112basic_stringIcSt11char_traitsIcESaIcEEESaIS5_EEC2Ev, @function
_ZNSt6vectorINSt7__cxx1112basic_stringIcSt11char_traitsIcESaIcEEESaIS5_EEC2Ev:
.LFB3178:
	.cfi_startproc
	pushq	%rbp
	.cfi_def_cfa_offset 16
	.cfi_offset 6, -16
	movq	%rsp, %rbp
	.cfi_def_cfa_register 6
	subq	$16, %rsp
	movq	%rdi, -8(%rbp)
	movq	-8(%rbp), %rax
	movq	%rax, %rdi
	call	_ZNSt12_Vector_baseINSt7__cxx1112basic_stringIcSt11char_traitsIcESaIcEEESaIS5_EEC2Ev
	nop
	leave
	.cfi_def_cfa 7, 8
	ret
	.cfi_endproc
.LFE3178:
	.size	_ZNSt6vectorINSt7__cxx1112basic_stringIcSt11char_traitsIcESaIcEEESaIS5_EEC2Ev, .-_ZNSt6vectorINSt7__cxx1112basic_stringIcSt11char_traitsIcESaIcEEESaIS5_EEC2Ev
	.weak	_ZNSt6vectorINSt7__cxx1112basic_stringIcSt11char_traitsIcESaIcEEESaIS5_EEC1Ev
	.set	_ZNSt6vectorINSt7__cxx1112basic_stringIcSt11char_traitsIcESaIcEEESaIS5_EEC1Ev,_ZNSt6vectorINSt7__cxx1112basic_stringIcSt11char_traitsIcESaIcEEESaIS5_EEC2Ev
	.text
	.globl	main
	.type	main, @function
main:
.LFB3167:
	.cfi_startproc
	.cfi_personality 0x9b,DW.ref.__gxx_personality_v0
	.cfi_lsda 0x1b,.LLSDA3167
	pushq	%rbp
	.cfi_def_cfa_offset 16
	.cfi_offset 6, -16
	movq	%rsp, %rbp
	.cfi_def_cfa_register 6
	pushq	%rbx
	subq	$184, %rsp
	.cfi_offset 3, -24
	movq	%fs:40, %rax
	movq	%rax, -24(%rbp)
	xorl	%eax, %eax
	movl	$1000, -180(%rbp)
	leaq	-112(%rbp), %rax
	movq	%rax, %rdi
.LEHB0:
	call	_ZN7HashMapINSt7__cxx1112basic_stringIcSt11char_traitsIcESaIcEEEiSt4hashIS5_EEC1Ev
.LEHE0:
	leaq	-176(%rbp), %rax
	movq	%rax, %rdi
	call	_ZNSt6vectorINSt7__cxx1112basic_stringIcSt11char_traitsIcESaIcEEESaIS5_EEC1Ev
	leaq	-176(%rbp), %rax
	movl	$1000, %esi
	movq	%rax, %rdi
.LEHB1:
	call	_ZNSt6vectorINSt7__cxx1112basic_stringIcSt11char_traitsIcESaIcEEESaIS5_EE6resizeEm
	movl	$0, -192(%rbp)
.L24:
	cmpl	$999, -192(%rbp)
	jg	.L23
	leaq	-64(%rbp), %rax
	movl	-192(%rbp), %edx
	movl	%edx, %esi
	movq	%rax, %rdi
	call	_ZNSt7__cxx119to_stringEi
	movl	-192(%rbp), %eax
	movslq	%eax, %rdx
	leaq	-176(%rbp), %rax
	movq	%rdx, %rsi
	movq	%rax, %rdi
	call	_ZNSt6vectorINSt7__cxx1112basic_stringIcSt11char_traitsIcESaIcEEESaIS5_EEixEm
	movq	%rax, %rdx
	leaq	-64(%rbp), %rax
	movq	%rax, %rsi
	movq	%rdx, %rdi
	call	_ZNSt7__cxx1112basic_stringIcSt11char_traitsIcESaIcEEaSEOS4_@PLT
	leaq	-64(%rbp), %rax
	movq	%rax, %rdi
	call	_ZNSt7__cxx1112basic_stringIcSt11char_traitsIcESaIcEED1Ev@PLT
	addl	$1, -192(%rbp)
	jmp	.L24
.L23:
	movl	$0, -188(%rbp)
.L26:
	cmpl	$999, -188(%rbp)
	jg	.L25
	movl	-188(%rbp), %eax
	movslq	%eax, %rdx
	leaq	-176(%rbp), %rax
	movq	%rdx, %rsi
	movq	%rax, %rdi
	call	_ZNSt6vectorINSt7__cxx1112basic_stringIcSt11char_traitsIcESaIcEEESaIS5_EEixEm
	movq	%rax, %rdx
	leaq	-64(%rbp), %rax
	movq	%rdx, %rsi
	movq	%rax, %rdi
	call	_ZNSt7__cxx1112basic_stringIcSt11char_traitsIcESaIcEEC1ERKS4_@PLT
.LEHE1:
	movl	-188(%rbp), %edx
	leaq	-64(%rbp), %rcx
	leaq	-112(%rbp), %rax
	movq	%rcx, %rsi
	movq	%rax, %rdi
.LEHB2:
	call	_ZN7HashMapINSt7__cxx1112basic_stringIcSt11char_traitsIcESaIcEEEiSt4hashIS5_EE6InsertES5_i
.LEHE2:
	movl	%eax, %ecx
	movq	%rdx, %rax
	movq	%rax, %rbx
	leaq	-64(%rbp), %rax
	movq	%rax, %rdi
	call	_ZNSt7__cxx1112basic_stringIcSt11char_traitsIcESaIcEED1Ev@PLT
	addl	$1, -188(%rbp)
	jmp	.L26
.L25:
	movl	$0, -184(%rbp)
.L28:
	cmpl	$999999, -184(%rbp)
	jg	.L27
	movl	-184(%rbp), %eax
	movslq	%eax, %rdx
	imulq	$274877907, %rdx, %rdx
	shrq	$32, %rdx
	movl	%edx, %ecx
	sarl	$6, %ecx
	cltd
	subl	%edx, %ecx
	movl	%ecx, %edx
	imull	$1000, %edx, %edx
	subl	%edx, %eax
	movl	%eax, %edx
	movslq	%edx, %rdx
	leaq	-176(%rbp), %rax
	movq	%rdx, %rsi
	movq	%rax, %rdi
	call	_ZNSt6vectorINSt7__cxx1112basic_stringIcSt11char_traitsIcESaIcEEESaIS5_EEixEm
	movq	%rax, %rdx
	leaq	-144(%rbp), %rax
	leaq	-112(%rbp), %rcx
	movq	%rcx, %rsi
	movq	%rax, %rdi
.LEHB3:
	call	_ZN7HashMapINSt7__cxx1112basic_stringIcSt11char_traitsIcESaIcEEEiSt4hashIS5_EE3GetERKS5_
.LEHE3:
	addl	$1, -184(%rbp)
	jmp	.L28
.L27:
	movl	$0, %ebx
	leaq	-176(%rbp), %rax
	movq	%rax, %rdi
	call	_ZNSt6vectorINSt7__cxx1112basic_stringIcSt11char_traitsIcESaIcEEESaIS5_EED1Ev
	leaq	-112(%rbp), %rax
	movq	%rax, %rdi
	call	_ZN7HashMapINSt7__cxx1112basic_stringIcSt11char_traitsIcESaIcEEEiSt4hashIS5_EED1Ev
	movl	%ebx, %eax
	movq	-24(%rbp), %rsi
	xorq	%fs:40, %rsi
	je	.L32
	jmp	.L35
.L34:
	movq	%rax, %rbx
	leaq	-64(%rbp), %rax
	movq	%rax, %rdi
	call	_ZNSt7__cxx1112basic_stringIcSt11char_traitsIcESaIcEED1Ev@PLT
	jmp	.L31
.L33:
	movq	%rax, %rbx
.L31:
	leaq	-176(%rbp), %rax
	movq	%rax, %rdi
	call	_ZNSt6vectorINSt7__cxx1112basic_stringIcSt11char_traitsIcESaIcEEESaIS5_EED1Ev
	leaq	-112(%rbp), %rax
	movq	%rax, %rdi
	call	_ZN7HashMapINSt7__cxx1112basic_stringIcSt11char_traitsIcESaIcEEEiSt4hashIS5_EED1Ev
	movq	%rbx, %rax
	movq	%rax, %rdi
.LEHB4:
	call	_Unwind_Resume@PLT
.LEHE4:
.L35:
	call	__stack_chk_fail@PLT
.L32:
	addq	$184, %rsp
	popq	%rbx
	popq	%rbp
	.cfi_def_cfa 7, 8
	ret
	.cfi_endproc
.LFE3167:
	.section	.gcc_except_table,"a",@progbits
.LLSDA3167:
	.byte	0xff
	.byte	0xff
	.byte	0x1
	.uleb128 .LLSDACSE3167-.LLSDACSB3167
.LLSDACSB3167:
	.uleb128 .LEHB0-.LFB3167
	.uleb128 .LEHE0-.LEHB0
	.uleb128 0
	.uleb128 0
	.uleb128 .LEHB1-.LFB3167
	.uleb128 .LEHE1-.LEHB1
	.uleb128 .L33-.LFB3167
	.uleb128 0
	.uleb128 .LEHB2-.LFB3167
	.uleb128 .LEHE2-.LEHB2
	.uleb128 .L34-.LFB3167
	.uleb128 0
	.uleb128 .LEHB3-.LFB3167
	.uleb128 .LEHE3-.LEHB3
	.uleb128 .L33-.LFB3167
	.uleb128 0
	.uleb128 .LEHB4-.LFB3167
	.uleb128 .LEHE4-.LEHB4
	.uleb128 0
	.uleb128 0
.LLSDACSE3167:
	.text
	.size	main, .-main
	.section	.text._ZN9__gnu_cxx11char_traitsIcE2ltERKcS3_,"axG",@progbits,_ZN9__gnu_cxx11char_traitsIcE2ltERKcS3_,comdat
	.weak	_ZN9__gnu_cxx11char_traitsIcE2ltERKcS3_
	.type	_ZN9__gnu_cxx11char_traitsIcE2ltERKcS3_, @function
_ZN9__gnu_cxx11char_traitsIcE2ltERKcS3_:
.LFB3186:
	.cfi_startproc
	pushq	%rbp
	.cfi_def_cfa_offset 16
	.cfi_offset 6, -16
	movq	%rsp, %rbp
	.cfi_def_cfa_register 6
	movq	%rdi, -8(%rbp)
	movq	%rsi, -16(%rbp)
	movq	-8(%rbp), %rax
	movzbl	(%rax), %edx
	movq	-16(%rbp), %rax
	movzbl	(%rax), %eax
	cmpb	%al, %dl
	setl	%al
	popq	%rbp
	.cfi_def_cfa 7, 8
	ret
	.cfi_endproc
.LFE3186:
	.size	_ZN9__gnu_cxx11char_traitsIcE2ltERKcS3_, .-_ZN9__gnu_cxx11char_traitsIcE2ltERKcS3_
	.section	.text._ZN9__gnu_cxx11char_traitsIcE7compareEPKcS3_m,"axG",@progbits,_ZN9__gnu_cxx11char_traitsIcE7compareEPKcS3_m,comdat
	.align 2
	.weak	_ZN9__gnu_cxx11char_traitsIcE7compareEPKcS3_m
	.type	_ZN9__gnu_cxx11char_traitsIcE7compareEPKcS3_m, @function
_ZN9__gnu_cxx11char_traitsIcE7compareEPKcS3_m:
.LFB3185:
	.cfi_startproc
	pushq	%rbp
	.cfi_def_cfa_offset 16
	.cfi_offset 6, -16
	movq	%rsp, %rbp
	.cfi_def_cfa_register 6
	subq	$48, %rsp
	movq	%rdi, -24(%rbp)
	movq	%rsi, -32(%rbp)
	movq	%rdx, -40(%rbp)
	movq	$0, -8(%rbp)
.L43:
	movq	-8(%rbp), %rax
	cmpq	-40(%rbp), %rax
	jnb	.L39
	movq	-32(%rbp), %rdx
	movq	-8(%rbp), %rax
	addq	%rax, %rdx
	movq	-24(%rbp), %rcx
	movq	-8(%rbp), %rax
	addq	%rcx, %rax
	movq	%rdx, %rsi
	movq	%rax, %rdi
	call	_ZN9__gnu_cxx11char_traitsIcE2ltERKcS3_
	testb	%al, %al
	je	.L40
	movl	$-1, %eax
	jmp	.L41
.L40:
	movq	-24(%rbp), %rdx
	movq	-8(%rbp), %rax
	addq	%rax, %rdx
	movq	-32(%rbp), %rcx
	movq	-8(%rbp), %rax
	addq	%rcx, %rax
	movq	%rdx, %rsi
	movq	%rax, %rdi
	call	_ZN9__gnu_cxx11char_traitsIcE2ltERKcS3_
	testb	%al, %al
	je	.L42
	movl	$1, %eax
	jmp	.L41
.L42:
	addq	$1, -8(%rbp)
	jmp	.L43
.L39:
	movl	$0, %eax
.L41:
	leave
	.cfi_def_cfa 7, 8
	ret
	.cfi_endproc
.LFE3185:
	.size	_ZN9__gnu_cxx11char_traitsIcE7compareEPKcS3_m, .-_ZN9__gnu_cxx11char_traitsIcE7compareEPKcS3_m
	.section	.text._ZN9__gnu_cxx12__to_xstringINSt7__cxx1112basic_stringIcSt11char_traitsIcESaIcEEEcEET_PFiPT0_mPKS8_P13__va_list_tagEmSB_z,"axG",@progbits,_ZN9__gnu_cxx12__to_xstringINSt7__cxx1112basic_stringIcSt11char_traitsIcESaIcEEEcEET_PFiPT0_mPKS8_P13__va_list_tagEmSB_z,comdat
	.weak	_ZN9__gnu_cxx12__to_xstringINSt7__cxx1112basic_stringIcSt11char_traitsIcESaIcEEEcEET_PFiPT0_mPKS8_P13__va_list_tagEmSB_z
	.type	_ZN9__gnu_cxx12__to_xstringINSt7__cxx1112basic_stringIcSt11char_traitsIcESaIcEEEcEET_PFiPT0_mPKS8_P13__va_list_tagEmSB_z, @function
_ZN9__gnu_cxx12__to_xstringINSt7__cxx1112basic_stringIcSt11char_traitsIcESaIcEEEcEET_PFiPT0_mPKS8_P13__va_list_tagEmSB_z:
.LFB3285:
	.cfi_startproc
	.cfi_personality 0x9b,DW.ref.__gxx_personality_v0
	.cfi_lsda 0x1b,.LLSDA3285
	pushq	%rbp
	.cfi_def_cfa_offset 16
	.cfi_offset 6, -16
	movq	%rsp, %rbp
	.cfi_def_cfa_register 6
	pushq	%rbx
	subq	$264, %rsp
	.cfi_offset 3, -24
	movq	%rdi, -248(%rbp)
	movq	%rsi, -256(%rbp)
	movq	%rdx, -264(%rbp)
	movq	%rcx, -272(%rbp)
	movq	%r8, -160(%rbp)
	movq	%r9, -152(%rbp)
	testb	%al, %al
	je	.L45
	movaps	%xmm0, -144(%rbp)
	movaps	%xmm1, -128(%rbp)
	movaps	%xmm2, -112(%rbp)
	movaps	%xmm3, -96(%rbp)
	movaps	%xmm4, -80(%rbp)
	movaps	%xmm5, -64(%rbp)
	movaps	%xmm6, -48(%rbp)
	movaps	%xmm7, -32(%rbp)
.L45:
	movq	%fs:40, %rax
	movq	%rax, -200(%rbp)
	xorl	%eax, %eax
	movq	-264(%rbp), %rax
	leaq	8(%rax), %rdx
	movl	$16, %eax
	subq	$1, %rax
	addq	%rdx, %rax
	movl	$16, %ebx
	movl	$0, %edx
	divq	%rbx
	imulq	$16, %rax, %rax
	subq	%rax, %rsp
	movq	%rsp, %rax
	addq	$15, %rax
	shrq	$4, %rax
	salq	$4, %rax
	movq	%rax, -232(%rbp)
	movl	$32, -224(%rbp)
	movl	$48, -220(%rbp)
	leaq	16(%rbp), %rax
	movq	%rax, -216(%rbp)
	leaq	-192(%rbp), %rax
	movq	%rax, -208(%rbp)
	leaq	-224(%rbp), %rcx
	movq	-272(%rbp), %rdx
	movq	-264(%rbp), %rsi
	movq	-232(%rbp), %rax
	movq	-256(%rbp), %r8
	movq	%rax, %rdi
.LEHB5:
	call	*%r8
.LEHE5:
	movl	%eax, -236(%rbp)
	leaq	-237(%rbp), %rax
	movq	%rax, %rdi
	call	_ZNSaIcEC1Ev@PLT
	movl	-236(%rbp), %eax
	movslq	%eax, %rdx
	movq	-232(%rbp), %rax
	leaq	(%rdx,%rax), %rdi
	leaq	-237(%rbp), %rdx
	movq	-232(%rbp), %rsi
	movq	-248(%rbp), %rax
	movq	%rdx, %rcx
	movq	%rdi, %rdx
	movq	%rax, %rdi
.LEHB6:
	call	_ZNSt7__cxx1112basic_stringIcSt11char_traitsIcESaIcEEC1IPcvEET_S7_RKS3_
.LEHE6:
	leaq	-237(%rbp), %rax
	movq	%rax, %rdi
	call	_ZNSaIcED1Ev@PLT
	movq	-200(%rbp), %rax
	xorq	%fs:40, %rax
	je	.L48
	jmp	.L50
.L49:
	movq	%rax, %rbx
	leaq	-237(%rbp), %rax
	movq	%rax, %rdi
	call	_ZNSaIcED1Ev@PLT
	movq	%rbx, %rax
	movq	%rax, %rdi
.LEHB7:
	call	_Unwind_Resume@PLT
.LEHE7:
.L50:
	call	__stack_chk_fail@PLT
.L48:
	movq	-248(%rbp), %rax
	movq	-8(%rbp), %rbx
	leave
	.cfi_def_cfa 7, 8
	ret
	.cfi_endproc
.LFE3285:
	.section	.gcc_except_table
.LLSDA3285:
	.byte	0xff
	.byte	0xff
	.byte	0x1
	.uleb128 .LLSDACSE3285-.LLSDACSB3285
.LLSDACSB3285:
	.uleb128 .LEHB5-.LFB3285
	.uleb128 .LEHE5-.LEHB5
	.uleb128 0
	.uleb128 0
	.uleb128 .LEHB6-.LFB3285
	.uleb128 .LEHE6-.LEHB6
	.uleb128 .L49-.LFB3285
	.uleb128 0
	.uleb128 .LEHB7-.LFB3285
	.uleb128 .LEHE7-.LEHB7
	.uleb128 0
	.uleb128 0
.LLSDACSE3285:
	.section	.text._ZN9__gnu_cxx12__to_xstringINSt7__cxx1112basic_stringIcSt11char_traitsIcESaIcEEEcEET_PFiPT0_mPKS8_P13__va_list_tagEmSB_z,"axG",@progbits,_ZN9__gnu_cxx12__to_xstringINSt7__cxx1112basic_stringIcSt11char_traitsIcESaIcEEEcEET_PFiPT0_mPKS8_P13__va_list_tagEmSB_z,comdat
	.size	_ZN9__gnu_cxx12__to_xstringINSt7__cxx1112basic_stringIcSt11char_traitsIcESaIcEEEcEET_PFiPT0_mPKS8_P13__va_list_tagEmSB_z, .-_ZN9__gnu_cxx12__to_xstringINSt7__cxx1112basic_stringIcSt11char_traitsIcESaIcEEEcEET_PFiPT0_mPKS8_P13__va_list_tagEmSB_z
	.section	.text._ZNSt7__cxx1112basic_stringIcSt11char_traitsIcESaIcEE12_Alloc_hiderD2Ev,"axG",@progbits,_ZNSt7__cxx1112basic_stringIcSt11char_traitsIcESaIcEE12_Alloc_hiderD5Ev,comdat
	.align 2
	.weak	_ZNSt7__cxx1112basic_stringIcSt11char_traitsIcESaIcEE12_Alloc_hiderD2Ev
	.type	_ZNSt7__cxx1112basic_stringIcSt11char_traitsIcESaIcEE12_Alloc_hiderD2Ev, @function
_ZNSt7__cxx1112basic_stringIcSt11char_traitsIcESaIcEE12_Alloc_hiderD2Ev:
.LFB3288:
	.cfi_startproc
	pushq	%rbp
	.cfi_def_cfa_offset 16
	.cfi_offset 6, -16
	movq	%rsp, %rbp
	.cfi_def_cfa_register 6
	subq	$16, %rsp
	movq	%rdi, -8(%rbp)
	movq	-8(%rbp), %rax
	movq	%rax, %rdi
	call	_ZNSaIcED2Ev@PLT
	nop
	leave
	.cfi_def_cfa 7, 8
	ret
	.cfi_endproc
.LFE3288:
	.size	_ZNSt7__cxx1112basic_stringIcSt11char_traitsIcESaIcEE12_Alloc_hiderD2Ev, .-_ZNSt7__cxx1112basic_stringIcSt11char_traitsIcESaIcEE12_Alloc_hiderD2Ev
	.weak	_ZNSt7__cxx1112basic_stringIcSt11char_traitsIcESaIcEE12_Alloc_hiderD1Ev
	.set	_ZNSt7__cxx1112basic_stringIcSt11char_traitsIcESaIcEE12_Alloc_hiderD1Ev,_ZNSt7__cxx1112basic_stringIcSt11char_traitsIcESaIcEE12_Alloc_hiderD2Ev
	.section	.text._ZSt3maxImERKT_S2_S2_,"axG",@progbits,_ZSt3maxImERKT_S2_S2_,comdat
	.weak	_ZSt3maxImERKT_S2_S2_
	.type	_ZSt3maxImERKT_S2_S2_, @function
_ZSt3maxImERKT_S2_S2_:
.LFB3463:
	.cfi_startproc
	pushq	%rbp
	.cfi_def_cfa_offset 16
	.cfi_offset 6, -16
	movq	%rsp, %rbp
	.cfi_def_cfa_register 6
	movq	%rdi, -8(%rbp)
	movq	%rsi, -16(%rbp)
	movq	-8(%rbp), %rax
	movq	(%rax), %rdx
	movq	-16(%rbp), %rax
	movq	(%rax), %rax
	cmpq	%rax, %rdx
	jnb	.L53
	movq	-16(%rbp), %rax
	jmp	.L54
.L53:
	movq	-8(%rbp), %rax
.L54:
	popq	%rbp
	.cfi_def_cfa 7, 8
	ret
	.cfi_endproc
.LFE3463:
	.size	_ZSt3maxImERKT_S2_S2_, .-_ZSt3maxImERKT_S2_S2_
	.section	.text._ZNSt12_Vector_baseIN7HashMapINSt7__cxx1112basic_stringIcSt11char_traitsIcESaIcEEEiSt4hashIS6_EE7ElementESaISA_EE12_Vector_implD2Ev,"axG",@progbits,_ZNSt12_Vector_baseIN7HashMapINSt7__cxx1112basic_stringIcSt11char_traitsIcESaIcEEEiSt4hashIS6_EE7ElementESaISA_EE12_Vector_implD5Ev,comdat
	.align 2
	.weak	_ZNSt12_Vector_baseIN7HashMapINSt7__cxx1112basic_stringIcSt11char_traitsIcESaIcEEEiSt4hashIS6_EE7ElementESaISA_EE12_Vector_implD2Ev
	.type	_ZNSt12_Vector_baseIN7HashMapINSt7__cxx1112basic_stringIcSt11char_traitsIcESaIcEEEiSt4hashIS6_EE7ElementESaISA_EE12_Vector_implD2Ev, @function
_ZNSt12_Vector_baseIN7HashMapINSt7__cxx1112basic_stringIcSt11char_traitsIcESaIcEEEiSt4hashIS6_EE7ElementESaISA_EE12_Vector_implD2Ev:
.LFB3490:
	.cfi_startproc
	pushq	%rbp
	.cfi_def_cfa_offset 16
	.cfi_offset 6, -16
	movq	%rsp, %rbp
	.cfi_def_cfa_register 6
	subq	$16, %rsp
	movq	%rdi, -8(%rbp)
	movq	-8(%rbp), %rax
	movq	%rax, %rdi
	call	_ZNSaIN7HashMapINSt7__cxx1112basic_stringIcSt11char_traitsIcESaIcEEEiSt4hashIS5_EE7ElementEED2Ev
	nop
	leave
	.cfi_def_cfa 7, 8
	ret
	.cfi_endproc
.LFE3490:
	.size	_ZNSt12_Vector_baseIN7HashMapINSt7__cxx1112basic_stringIcSt11char_traitsIcESaIcEEEiSt4hashIS6_EE7ElementESaISA_EE12_Vector_implD2Ev, .-_ZNSt12_Vector_baseIN7HashMapINSt7__cxx1112basic_stringIcSt11char_traitsIcESaIcEEEiSt4hashIS6_EE7ElementESaISA_EE12_Vector_implD2Ev
	.weak	_ZNSt12_Vector_baseIN7HashMapINSt7__cxx1112basic_stringIcSt11char_traitsIcESaIcEEEiSt4hashIS6_EE7ElementESaISA_EE12_Vector_implD1Ev
	.set	_ZNSt12_Vector_baseIN7HashMapINSt7__cxx1112basic_stringIcSt11char_traitsIcESaIcEEEiSt4hashIS6_EE7ElementESaISA_EE12_Vector_implD1Ev,_ZNSt12_Vector_baseIN7HashMapINSt7__cxx1112basic_stringIcSt11char_traitsIcESaIcEEEiSt4hashIS6_EE7ElementESaISA_EE12_Vector_implD2Ev
	.section	.text._ZNSt12_Vector_baseIN7HashMapINSt7__cxx1112basic_stringIcSt11char_traitsIcESaIcEEEiSt4hashIS6_EE7ElementESaISA_EEC2Ev,"axG",@progbits,_ZNSt12_Vector_baseIN7HashMapINSt7__cxx1112basic_stringIcSt11char_traitsIcESaIcEEEiSt4hashIS6_EE7ElementESaISA_EEC5Ev,comdat
	.align 2
	.weak	_ZNSt12_Vector_baseIN7HashMapINSt7__cxx1112basic_stringIcSt11char_traitsIcESaIcEEEiSt4hashIS6_EE7ElementESaISA_EEC2Ev
	.type	_ZNSt12_Vector_baseIN7HashMapINSt7__cxx1112basic_stringIcSt11char_traitsIcESaIcEEEiSt4hashIS6_EE7ElementESaISA_EEC2Ev, @function
_ZNSt12_Vector_baseIN7HashMapINSt7__cxx1112basic_stringIcSt11char_traitsIcESaIcEEEiSt4hashIS6_EE7ElementESaISA_EEC2Ev:
.LFB3492:
	.cfi_startproc
	pushq	%rbp
	.cfi_def_cfa_offset 16
	.cfi_offset 6, -16
	movq	%rsp, %rbp
	.cfi_def_cfa_register 6
	subq	$16, %rsp
	movq	%rdi, -8(%rbp)
	movq	-8(%rbp), %rax
	movq	%rax, %rdi
	call	_ZNSt12_Vector_baseIN7HashMapINSt7__cxx1112basic_stringIcSt11char_traitsIcESaIcEEEiSt4hashIS6_EE7ElementESaISA_EE12_Vector_implC1Ev
	nop
	leave
	.cfi_def_cfa 7, 8
	ret
	.cfi_endproc
.LFE3492:
	.size	_ZNSt12_Vector_baseIN7HashMapINSt7__cxx1112basic_stringIcSt11char_traitsIcESaIcEEEiSt4hashIS6_EE7ElementESaISA_EEC2Ev, .-_ZNSt12_Vector_baseIN7HashMapINSt7__cxx1112basic_stringIcSt11char_traitsIcESaIcEEEiSt4hashIS6_EE7ElementESaISA_EEC2Ev
	.weak	_ZNSt12_Vector_baseIN7HashMapINSt7__cxx1112basic_stringIcSt11char_traitsIcESaIcEEEiSt4hashIS6_EE7ElementESaISA_EEC1Ev
	.set	_ZNSt12_Vector_baseIN7HashMapINSt7__cxx1112basic_stringIcSt11char_traitsIcESaIcEEEiSt4hashIS6_EE7ElementESaISA_EEC1Ev,_ZNSt12_Vector_baseIN7HashMapINSt7__cxx1112basic_stringIcSt11char_traitsIcESaIcEEEiSt4hashIS6_EE7ElementESaISA_EEC2Ev
	.section	.text._ZNSt6vectorIN7HashMapINSt7__cxx1112basic_stringIcSt11char_traitsIcESaIcEEEiSt4hashIS6_EE7ElementESaISA_EEC2Ev,"axG",@progbits,_ZNSt6vectorIN7HashMapINSt7__cxx1112basic_stringIcSt11char_traitsIcESaIcEEEiSt4hashIS6_EE7ElementESaISA_EEC5Ev,comdat
	.align 2
	.weak	_ZNSt6vectorIN7HashMapINSt7__cxx1112basic_stringIcSt11char_traitsIcESaIcEEEiSt4hashIS6_EE7ElementESaISA_EEC2Ev
	.type	_ZNSt6vectorIN7HashMapINSt7__cxx1112basic_stringIcSt11char_traitsIcESaIcEEEiSt4hashIS6_EE7ElementESaISA_EEC2Ev, @function
_ZNSt6vectorIN7HashMapINSt7__cxx1112basic_stringIcSt11char_traitsIcESaIcEEEiSt4hashIS6_EE7ElementESaISA_EEC2Ev:
.LFB3494:
	.cfi_startproc
	pushq	%rbp
	.cfi_def_cfa_offset 16
	.cfi_offset 6, -16
	movq	%rsp, %rbp
	.cfi_def_cfa_register 6
	subq	$16, %rsp
	movq	%rdi, -8(%rbp)
	movq	-8(%rbp), %rax
	movq	%rax, %rdi
	call	_ZNSt12_Vector_baseIN7HashMapINSt7__cxx1112basic_stringIcSt11char_traitsIcESaIcEEEiSt4hashIS6_EE7ElementESaISA_EEC2Ev
	nop
	leave
	.cfi_def_cfa 7, 8
	ret
	.cfi_endproc
.LFE3494:
	.size	_ZNSt6vectorIN7HashMapINSt7__cxx1112basic_stringIcSt11char_traitsIcESaIcEEEiSt4hashIS6_EE7ElementESaISA_EEC2Ev, .-_ZNSt6vectorIN7HashMapINSt7__cxx1112basic_stringIcSt11char_traitsIcESaIcEEEiSt4hashIS6_EE7ElementESaISA_EEC2Ev
	.weak	_ZNSt6vectorIN7HashMapINSt7__cxx1112basic_stringIcSt11char_traitsIcESaIcEEEiSt4hashIS6_EE7ElementESaISA_EEC1Ev
	.set	_ZNSt6vectorIN7HashMapINSt7__cxx1112basic_stringIcSt11char_traitsIcESaIcEEEiSt4hashIS6_EE7ElementESaISA_EEC1Ev,_ZNSt6vectorIN7HashMapINSt7__cxx1112basic_stringIcSt11char_traitsIcESaIcEEEiSt4hashIS6_EE7ElementESaISA_EEC2Ev
	.section	.text._ZN7HashMapINSt7__cxx1112basic_stringIcSt11char_traitsIcESaIcEEEiSt4hashIS5_EEC2Ev,"axG",@progbits,_ZN7HashMapINSt7__cxx1112basic_stringIcSt11char_traitsIcESaIcEEEiSt4hashIS5_EEC5Ev,comdat
	.align 2
	.weak	_ZN7HashMapINSt7__cxx1112basic_stringIcSt11char_traitsIcESaIcEEEiSt4hashIS5_EEC2Ev
	.type	_ZN7HashMapINSt7__cxx1112basic_stringIcSt11char_traitsIcESaIcEEEiSt4hashIS5_EEC2Ev, @function
_ZN7HashMapINSt7__cxx1112basic_stringIcSt11char_traitsIcESaIcEEEiSt4hashIS5_EEC2Ev:
.LFB3496:
	.cfi_startproc
	.cfi_personality 0x9b,DW.ref.__gxx_personality_v0
	.cfi_lsda 0x1b,.LLSDA3496
	pushq	%rbp
	.cfi_def_cfa_offset 16
	.cfi_offset 6, -16
	movq	%rsp, %rbp
	.cfi_def_cfa_register 6
	pushq	%rbx
	subq	$24, %rsp
	.cfi_offset 3, -24
	movq	%rdi, -24(%rbp)
	movq	-24(%rbp), %rax
	movq	$0, (%rax)
	movq	-24(%rbp), %rax
	movq	$8, 8(%rax)
	movq	-24(%rbp), %rax
	addq	$16, %rax
	movq	%rax, %rdi
	call	_ZNSt6vectorIN7HashMapINSt7__cxx1112basic_stringIcSt11char_traitsIcESaIcEEEiSt4hashIS6_EE7ElementESaISA_EEC1Ev
	movq	-24(%rbp), %rax
	addq	$16, %rax
	movl	$8, %esi
	movq	%rax, %rdi
.LEHB8:
	call	_ZNSt6vectorIN7HashMapINSt7__cxx1112basic_stringIcSt11char_traitsIcESaIcEEEiSt4hashIS6_EE7ElementESaISA_EE6resizeEm
.LEHE8:
	jmp	.L61
.L60:
	movq	%rax, %rbx
	movq	-24(%rbp), %rax
	addq	$16, %rax
	movq	%rax, %rdi
	call	_ZNSt6vectorIN7HashMapINSt7__cxx1112basic_stringIcSt11char_traitsIcESaIcEEEiSt4hashIS6_EE7ElementESaISA_EED1Ev
	movq	%rbx, %rax
	movq	%rax, %rdi
.LEHB9:
	call	_Unwind_Resume@PLT
.LEHE9:
.L61:
	addq	$24, %rsp
	popq	%rbx
	popq	%rbp
	.cfi_def_cfa 7, 8
	ret
	.cfi_endproc
.LFE3496:
	.section	.gcc_except_table
.LLSDA3496:
	.byte	0xff
	.byte	0xff
	.byte	0x1
	.uleb128 .LLSDACSE3496-.LLSDACSB3496
.LLSDACSB3496:
	.uleb128 .LEHB8-.LFB3496
	.uleb128 .LEHE8-.LEHB8
	.uleb128 .L60-.LFB3496
	.uleb128 0
	.uleb128 .LEHB9-.LFB3496
	.uleb128 .LEHE9-.LEHB9
	.uleb128 0
	.uleb128 0
.LLSDACSE3496:
	.section	.text._ZN7HashMapINSt7__cxx1112basic_stringIcSt11char_traitsIcESaIcEEEiSt4hashIS5_EEC2Ev,"axG",@progbits,_ZN7HashMapINSt7__cxx1112basic_stringIcSt11char_traitsIcESaIcEEEiSt4hashIS5_EEC5Ev,comdat
	.size	_ZN7HashMapINSt7__cxx1112basic_stringIcSt11char_traitsIcESaIcEEEiSt4hashIS5_EEC2Ev, .-_ZN7HashMapINSt7__cxx1112basic_stringIcSt11char_traitsIcESaIcEEEiSt4hashIS5_EEC2Ev
	.weak	_ZN7HashMapINSt7__cxx1112basic_stringIcSt11char_traitsIcESaIcEEEiSt4hashIS5_EEC1Ev
	.set	_ZN7HashMapINSt7__cxx1112basic_stringIcSt11char_traitsIcESaIcEEEiSt4hashIS5_EEC1Ev,_ZN7HashMapINSt7__cxx1112basic_stringIcSt11char_traitsIcESaIcEEEiSt4hashIS5_EEC2Ev
	.section	.text._ZNSt6vectorIN7HashMapINSt7__cxx1112basic_stringIcSt11char_traitsIcESaIcEEEiSt4hashIS6_EE7ElementESaISA_EED2Ev,"axG",@progbits,_ZNSt6vectorIN7HashMapINSt7__cxx1112basic_stringIcSt11char_traitsIcESaIcEEEiSt4hashIS6_EE7ElementESaISA_EED5Ev,comdat
	.align 2
	.weak	_ZNSt6vectorIN7HashMapINSt7__cxx1112basic_stringIcSt11char_traitsIcESaIcEEEiSt4hashIS6_EE7ElementESaISA_EED2Ev
	.type	_ZNSt6vectorIN7HashMapINSt7__cxx1112basic_stringIcSt11char_traitsIcESaIcEEEiSt4hashIS6_EE7ElementESaISA_EED2Ev, @function
_ZNSt6vectorIN7HashMapINSt7__cxx1112basic_stringIcSt11char_traitsIcESaIcEEEiSt4hashIS6_EE7ElementESaISA_EED2Ev:
.LFB3499:
	.cfi_startproc
	.cfi_personality 0x9b,DW.ref.__gxx_personality_v0
	.cfi_lsda 0x1b,.LLSDA3499
	pushq	%rbp
	.cfi_def_cfa_offset 16
	.cfi_offset 6, -16
	movq	%rsp, %rbp
	.cfi_def_cfa_register 6
	subq	$16, %rsp
	movq	%rdi, -8(%rbp)
	movq	-8(%rbp), %rax
	movq	%rax, %rdi
	call	_ZNSt12_Vector_baseIN7HashMapINSt7__cxx1112basic_stringIcSt11char_traitsIcESaIcEEEiSt4hashIS6_EE7ElementESaISA_EE19_M_get_Tp_allocatorEv
	movq	%rax, %rdx
	movq	-8(%rbp), %rax
	movq	8(%rax), %rcx
	movq	-8(%rbp), %rax
	movq	(%rax), %rax
	movq	%rcx, %rsi
	movq	%rax, %rdi
	call	_ZSt8_DestroyIPN7HashMapINSt7__cxx1112basic_stringIcSt11char_traitsIcESaIcEEEiSt4hashIS6_EE7ElementESA_EvT_SC_RSaIT0_E
	movq	-8(%rbp), %rax
	movq	%rax, %rdi
	call	_ZNSt12_Vector_baseIN7HashMapINSt7__cxx1112basic_stringIcSt11char_traitsIcESaIcEEEiSt4hashIS6_EE7ElementESaISA_EED2Ev
	nop
	leave
	.cfi_def_cfa 7, 8
	ret
	.cfi_endproc
.LFE3499:
	.section	.gcc_except_table
.LLSDA3499:
	.byte	0xff
	.byte	0xff
	.byte	0x1
	.uleb128 .LLSDACSE3499-.LLSDACSB3499
.LLSDACSB3499:
.LLSDACSE3499:
	.section	.text._ZNSt6vectorIN7HashMapINSt7__cxx1112basic_stringIcSt11char_traitsIcESaIcEEEiSt4hashIS6_EE7ElementESaISA_EED2Ev,"axG",@progbits,_ZNSt6vectorIN7HashMapINSt7__cxx1112basic_stringIcSt11char_traitsIcESaIcEEEiSt4hashIS6_EE7ElementESaISA_EED5Ev,comdat
	.size	_ZNSt6vectorIN7HashMapINSt7__cxx1112basic_stringIcSt11char_traitsIcESaIcEEEiSt4hashIS6_EE7ElementESaISA_EED2Ev, .-_ZNSt6vectorIN7HashMapINSt7__cxx1112basic_stringIcSt11char_traitsIcESaIcEEEiSt4hashIS6_EE7ElementESaISA_EED2Ev
	.weak	_ZNSt6vectorIN7HashMapINSt7__cxx1112basic_stringIcSt11char_traitsIcESaIcEEEiSt4hashIS6_EE7ElementESaISA_EED1Ev
	.set	_ZNSt6vectorIN7HashMapINSt7__cxx1112basic_stringIcSt11char_traitsIcESaIcEEEiSt4hashIS6_EE7ElementESaISA_EED1Ev,_ZNSt6vectorIN7HashMapINSt7__cxx1112basic_stringIcSt11char_traitsIcESaIcEEEiSt4hashIS6_EE7ElementESaISA_EED2Ev
	.section	.text._ZNSt12_Vector_baseINSt7__cxx1112basic_stringIcSt11char_traitsIcESaIcEEESaIS5_EE12_Vector_implC2Ev,"axG",@progbits,_ZNSt12_Vector_baseINSt7__cxx1112basic_stringIcSt11char_traitsIcESaIcEEESaIS5_EE12_Vector_implC5Ev,comdat
	.align 2
	.weak	_ZNSt12_Vector_baseINSt7__cxx1112basic_stringIcSt11char_traitsIcESaIcEEESaIS5_EE12_Vector_implC2Ev
	.type	_ZNSt12_Vector_baseINSt7__cxx1112basic_stringIcSt11char_traitsIcESaIcEEESaIS5_EE12_Vector_implC2Ev, @function
_ZNSt12_Vector_baseINSt7__cxx1112basic_stringIcSt11char_traitsIcESaIcEEESaIS5_EE12_Vector_implC2Ev:
.LFB3502:
	.cfi_startproc
	pushq	%rbp
	.cfi_def_cfa_offset 16
	.cfi_offset 6, -16
	movq	%rsp, %rbp
	.cfi_def_cfa_register 6
	subq	$16, %rsp
	movq	%rdi, -8(%rbp)
	movq	-8(%rbp), %rax
	movq	%rax, %rdi
	call	_ZNSaINSt7__cxx1112basic_stringIcSt11char_traitsIcESaIcEEEEC2Ev
	movq	-8(%rbp), %rax
	movq	%rax, %rdi
	call	_ZNSt12_Vector_baseINSt7__cxx1112basic_stringIcSt11char_traitsIcESaIcEEESaIS5_EE17_Vector_impl_dataC2Ev
	nop
	leave
	.cfi_def_cfa 7, 8
	ret
	.cfi_endproc
.LFE3502:
	.size	_ZNSt12_Vector_baseINSt7__cxx1112basic_stringIcSt11char_traitsIcESaIcEEESaIS5_EE12_Vector_implC2Ev, .-_ZNSt12_Vector_baseINSt7__cxx1112basic_stringIcSt11char_traitsIcESaIcEEESaIS5_EE12_Vector_implC2Ev
	.weak	_ZNSt12_Vector_baseINSt7__cxx1112basic_stringIcSt11char_traitsIcESaIcEEESaIS5_EE12_Vector_implC1Ev
	.set	_ZNSt12_Vector_baseINSt7__cxx1112basic_stringIcSt11char_traitsIcESaIcEEESaIS5_EE12_Vector_implC1Ev,_ZNSt12_Vector_baseINSt7__cxx1112basic_stringIcSt11char_traitsIcESaIcEEESaIS5_EE12_Vector_implC2Ev
	.section	.text._ZNSaINSt7__cxx1112basic_stringIcSt11char_traitsIcESaIcEEEED2Ev,"axG",@progbits,_ZNSaINSt7__cxx1112basic_stringIcSt11char_traitsIcESaIcEEEED5Ev,comdat
	.align 2
	.weak	_ZNSaINSt7__cxx1112basic_stringIcSt11char_traitsIcESaIcEEEED2Ev
	.type	_ZNSaINSt7__cxx1112basic_stringIcSt11char_traitsIcESaIcEEEED2Ev, @function
_ZNSaINSt7__cxx1112basic_stringIcSt11char_traitsIcESaIcEEEED2Ev:
.LFB3505:
	.cfi_startproc
	pushq	%rbp
	.cfi_def_cfa_offset 16
	.cfi_offset 6, -16
	movq	%rsp, %rbp
	.cfi_def_cfa_register 6
	subq	$16, %rsp
	movq	%rdi, -8(%rbp)
	movq	-8(%rbp), %rax
	movq	%rax, %rdi
	call	_ZN9__gnu_cxx13new_allocatorINSt7__cxx1112basic_stringIcSt11char_traitsIcESaIcEEEED2Ev
	nop
	leave
	.cfi_def_cfa 7, 8
	ret
	.cfi_endproc
.LFE3505:
	.size	_ZNSaINSt7__cxx1112basic_stringIcSt11char_traitsIcESaIcEEEED2Ev, .-_ZNSaINSt7__cxx1112basic_stringIcSt11char_traitsIcESaIcEEEED2Ev
	.weak	_ZNSaINSt7__cxx1112basic_stringIcSt11char_traitsIcESaIcEEEED1Ev
	.set	_ZNSaINSt7__cxx1112basic_stringIcSt11char_traitsIcESaIcEEEED1Ev,_ZNSaINSt7__cxx1112basic_stringIcSt11char_traitsIcESaIcEEEED2Ev
	.section	.text._ZNSt12_Vector_baseINSt7__cxx1112basic_stringIcSt11char_traitsIcESaIcEEESaIS5_EED2Ev,"axG",@progbits,_ZNSt12_Vector_baseINSt7__cxx1112basic_stringIcSt11char_traitsIcESaIcEEESaIS5_EED5Ev,comdat
	.align 2
	.weak	_ZNSt12_Vector_baseINSt7__cxx1112basic_stringIcSt11char_traitsIcESaIcEEESaIS5_EED2Ev
	.type	_ZNSt12_Vector_baseINSt7__cxx1112basic_stringIcSt11char_traitsIcESaIcEEESaIS5_EED2Ev, @function
_ZNSt12_Vector_baseINSt7__cxx1112basic_stringIcSt11char_traitsIcESaIcEEESaIS5_EED2Ev:
.LFB3508:
	.cfi_startproc
	.cfi_personality 0x9b,DW.ref.__gxx_personality_v0
	.cfi_lsda 0x1b,.LLSDA3508
	pushq	%rbp
	.cfi_def_cfa_offset 16
	.cfi_offset 6, -16
	movq	%rsp, %rbp
	.cfi_def_cfa_register 6
	subq	$16, %rsp
	movq	%rdi, -8(%rbp)
	movq	-8(%rbp), %rax
	movq	16(%rax), %rdx
	movq	-8(%rbp), %rax
	movq	(%rax), %rax
	subq	%rax, %rdx
	movq	%rdx, %rax
	sarq	$5, %rax
	movq	%rax, %rdx
	movq	-8(%rbp), %rax
	movq	(%rax), %rcx
	movq	-8(%rbp), %rax
	movq	%rcx, %rsi
	movq	%rax, %rdi
	call	_ZNSt12_Vector_baseINSt7__cxx1112basic_stringIcSt11char_traitsIcESaIcEEESaIS5_EE13_M_deallocateEPS5_m
	movq	-8(%rbp), %rax
	movq	%rax, %rdi
	call	_ZNSt12_Vector_baseINSt7__cxx1112basic_stringIcSt11char_traitsIcESaIcEEESaIS5_EE12_Vector_implD1Ev
	nop
	leave
	.cfi_def_cfa 7, 8
	ret
	.cfi_endproc
.LFE3508:
	.section	.gcc_except_table
.LLSDA3508:
	.byte	0xff
	.byte	0xff
	.byte	0x1
	.uleb128 .LLSDACSE3508-.LLSDACSB3508
.LLSDACSB3508:
.LLSDACSE3508:
	.section	.text._ZNSt12_Vector_baseINSt7__cxx1112basic_stringIcSt11char_traitsIcESaIcEEESaIS5_EED2Ev,"axG",@progbits,_ZNSt12_Vector_baseINSt7__cxx1112basic_stringIcSt11char_traitsIcESaIcEEESaIS5_EED5Ev,comdat
	.size	_ZNSt12_Vector_baseINSt7__cxx1112basic_stringIcSt11char_traitsIcESaIcEEESaIS5_EED2Ev, .-_ZNSt12_Vector_baseINSt7__cxx1112basic_stringIcSt11char_traitsIcESaIcEEESaIS5_EED2Ev
	.weak	_ZNSt12_Vector_baseINSt7__cxx1112basic_stringIcSt11char_traitsIcESaIcEEESaIS5_EED1Ev
	.set	_ZNSt12_Vector_baseINSt7__cxx1112basic_stringIcSt11char_traitsIcESaIcEEESaIS5_EED1Ev,_ZNSt12_Vector_baseINSt7__cxx1112basic_stringIcSt11char_traitsIcESaIcEEESaIS5_EED2Ev
	.section	.text._ZNSt6vectorINSt7__cxx1112basic_stringIcSt11char_traitsIcESaIcEEESaIS5_EED2Ev,"axG",@progbits,_ZNSt6vectorINSt7__cxx1112basic_stringIcSt11char_traitsIcESaIcEEESaIS5_EED5Ev,comdat
	.align 2
	.weak	_ZNSt6vectorINSt7__cxx1112basic_stringIcSt11char_traitsIcESaIcEEESaIS5_EED2Ev
	.type	_ZNSt6vectorINSt7__cxx1112basic_stringIcSt11char_traitsIcESaIcEEESaIS5_EED2Ev, @function
_ZNSt6vectorINSt7__cxx1112basic_stringIcSt11char_traitsIcESaIcEEESaIS5_EED2Ev:
.LFB3511:
	.cfi_startproc
	.cfi_personality 0x9b,DW.ref.__gxx_personality_v0
	.cfi_lsda 0x1b,.LLSDA3511
	pushq	%rbp
	.cfi_def_cfa_offset 16
	.cfi_offset 6, -16
	movq	%rsp, %rbp
	.cfi_def_cfa_register 6
	subq	$16, %rsp
	movq	%rdi, -8(%rbp)
	movq	-8(%rbp), %rax
	movq	%rax, %rdi
	call	_ZNSt12_Vector_baseINSt7__cxx1112basic_stringIcSt11char_traitsIcESaIcEEESaIS5_EE19_M_get_Tp_allocatorEv
	movq	%rax, %rdx
	movq	-8(%rbp), %rax
	movq	8(%rax), %rcx
	movq	-8(%rbp), %rax
	movq	(%rax), %rax
	movq	%rcx, %rsi
	movq	%rax, %rdi
	call	_ZSt8_DestroyIPNSt7__cxx1112basic_stringIcSt11char_traitsIcESaIcEEES5_EvT_S7_RSaIT0_E
	movq	-8(%rbp), %rax
	movq	%rax, %rdi
	call	_ZNSt12_Vector_baseINSt7__cxx1112basic_stringIcSt11char_traitsIcESaIcEEESaIS5_EED2Ev
	nop
	leave
	.cfi_def_cfa 7, 8
	ret
	.cfi_endproc
.LFE3511:
	.section	.gcc_except_table
.LLSDA3511:
	.byte	0xff
	.byte	0xff
	.byte	0x1
	.uleb128 .LLSDACSE3511-.LLSDACSB3511
.LLSDACSB3511:
.LLSDACSE3511:
	.section	.text._ZNSt6vectorINSt7__cxx1112basic_stringIcSt11char_traitsIcESaIcEEESaIS5_EED2Ev,"axG",@progbits,_ZNSt6vectorINSt7__cxx1112basic_stringIcSt11char_traitsIcESaIcEEESaIS5_EED5Ev,comdat
	.size	_ZNSt6vectorINSt7__cxx1112basic_stringIcSt11char_traitsIcESaIcEEESaIS5_EED2Ev, .-_ZNSt6vectorINSt7__cxx1112basic_stringIcSt11char_traitsIcESaIcEEESaIS5_EED2Ev
	.weak	_ZNSt6vectorINSt7__cxx1112basic_stringIcSt11char_traitsIcESaIcEEESaIS5_EED1Ev
	.set	_ZNSt6vectorINSt7__cxx1112basic_stringIcSt11char_traitsIcESaIcEEESaIS5_EED1Ev,_ZNSt6vectorINSt7__cxx1112basic_stringIcSt11char_traitsIcESaIcEEESaIS5_EED2Ev
	.section	.text._ZNSt6vectorINSt7__cxx1112basic_stringIcSt11char_traitsIcESaIcEEESaIS5_EE6resizeEm,"axG",@progbits,_ZNSt6vectorINSt7__cxx1112basic_stringIcSt11char_traitsIcESaIcEEESaIS5_EE6resizeEm,comdat
	.align 2
	.weak	_ZNSt6vectorINSt7__cxx1112basic_stringIcSt11char_traitsIcESaIcEEESaIS5_EE6resizeEm
	.type	_ZNSt6vectorINSt7__cxx1112basic_stringIcSt11char_traitsIcESaIcEEESaIS5_EE6resizeEm, @function
_ZNSt6vectorINSt7__cxx1112basic_stringIcSt11char_traitsIcESaIcEEESaIS5_EE6resizeEm:
.LFB3513:
	.cfi_startproc
	pushq	%rbp
	.cfi_def_cfa_offset 16
	.cfi_offset 6, -16
	movq	%rsp, %rbp
	.cfi_def_cfa_register 6
	subq	$16, %rsp
	movq	%rdi, -8(%rbp)
	movq	%rsi, -16(%rbp)
	movq	-8(%rbp), %rax
	movq	%rax, %rdi
	call	_ZNKSt6vectorINSt7__cxx1112basic_stringIcSt11char_traitsIcESaIcEEESaIS5_EE4sizeEv
	cmpq	%rax, -16(%rbp)
	seta	%al
	testb	%al, %al
	je	.L68
	movq	-8(%rbp), %rax
	movq	%rax, %rdi
	call	_ZNKSt6vectorINSt7__cxx1112basic_stringIcSt11char_traitsIcESaIcEEESaIS5_EE4sizeEv
	movq	-16(%rbp), %rdx
	subq	%rax, %rdx
	movq	-8(%rbp), %rax
	movq	%rdx, %rsi
	movq	%rax, %rdi
	call	_ZNSt6vectorINSt7__cxx1112basic_stringIcSt11char_traitsIcESaIcEEESaIS5_EE17_M_default_appendEm
	jmp	.L70
.L68:
	movq	-8(%rbp), %rax
	movq	%rax, %rdi
	call	_ZNKSt6vectorINSt7__cxx1112basic_stringIcSt11char_traitsIcESaIcEEESaIS5_EE4sizeEv
	cmpq	%rax, -16(%rbp)
	setb	%al
	testb	%al, %al
	je	.L70
	movq	-8(%rbp), %rax
	movq	(%rax), %rax
	movq	-16(%rbp), %rdx
	salq	$5, %rdx
	addq	%rax, %rdx
	movq	-8(%rbp), %rax
	movq	%rdx, %rsi
	movq	%rax, %rdi
	call	_ZNSt6vectorINSt7__cxx1112basic_stringIcSt11char_traitsIcESaIcEEESaIS5_EE15_M_erase_at_endEPS5_
.L70:
	nop
	leave
	.cfi_def_cfa 7, 8
	ret
	.cfi_endproc
.LFE3513:
	.size	_ZNSt6vectorINSt7__cxx1112basic_stringIcSt11char_traitsIcESaIcEEESaIS5_EE6resizeEm, .-_ZNSt6vectorINSt7__cxx1112basic_stringIcSt11char_traitsIcESaIcEEESaIS5_EE6resizeEm
	.section	.text._ZNSt6vectorINSt7__cxx1112basic_stringIcSt11char_traitsIcESaIcEEESaIS5_EEixEm,"axG",@progbits,_ZNSt6vectorINSt7__cxx1112basic_stringIcSt11char_traitsIcESaIcEEESaIS5_EEixEm,comdat
	.align 2
	.weak	_ZNSt6vectorINSt7__cxx1112basic_stringIcSt11char_traitsIcESaIcEEESaIS5_EEixEm
	.type	_ZNSt6vectorINSt7__cxx1112basic_stringIcSt11char_traitsIcESaIcEEESaIS5_EEixEm, @function
_ZNSt6vectorINSt7__cxx1112basic_stringIcSt11char_traitsIcESaIcEEESaIS5_EEixEm:
.LFB3514:
	.cfi_startproc
	pushq	%rbp
	.cfi_def_cfa_offset 16
	.cfi_offset 6, -16
	movq	%rsp, %rbp
	.cfi_def_cfa_register 6
	movq	%rdi, -8(%rbp)
	movq	%rsi, -16(%rbp)
	movq	-8(%rbp), %rax
	movq	(%rax), %rax
	movq	-16(%rbp), %rdx
	salq	$5, %rdx
	addq	%rdx, %rax
	popq	%rbp
	.cfi_def_cfa 7, 8
	ret
	.cfi_endproc
.LFE3514:
	.size	_ZNSt6vectorINSt7__cxx1112basic_stringIcSt11char_traitsIcESaIcEEESaIS5_EEixEm, .-_ZNSt6vectorINSt7__cxx1112basic_stringIcSt11char_traitsIcESaIcEEESaIS5_EEixEm
	.section	.text._ZN7HashMapINSt7__cxx1112basic_stringIcSt11char_traitsIcESaIcEEEiSt4hashIS5_EE7ElementD2Ev,"axG",@progbits,_ZN7HashMapINSt7__cxx1112basic_stringIcSt11char_traitsIcESaIcEEEiSt4hashIS5_EE7ElementD5Ev,comdat
	.align 2
	.weak	_ZN7HashMapINSt7__cxx1112basic_stringIcSt11char_traitsIcESaIcEEEiSt4hashIS5_EE7ElementD2Ev
	.type	_ZN7HashMapINSt7__cxx1112basic_stringIcSt11char_traitsIcESaIcEEEiSt4hashIS5_EE7ElementD2Ev, @function
_ZN7HashMapINSt7__cxx1112basic_stringIcSt11char_traitsIcESaIcEEEiSt4hashIS5_EE7ElementD2Ev:
.LFB3521:
	.cfi_startproc
	pushq	%rbp
	.cfi_def_cfa_offset 16
	.cfi_offset 6, -16
	movq	%rsp, %rbp
	.cfi_def_cfa_register 6
	subq	$16, %rsp
	movq	%rdi, -8(%rbp)
	movq	-8(%rbp), %rax
	movq	%rax, %rdi
	call	_ZNSt7__cxx1112basic_stringIcSt11char_traitsIcESaIcEED1Ev@PLT
	nop
	leave
	.cfi_def_cfa 7, 8
	ret
	.cfi_endproc
.LFE3521:
	.size	_ZN7HashMapINSt7__cxx1112basic_stringIcSt11char_traitsIcESaIcEEEiSt4hashIS5_EE7ElementD2Ev, .-_ZN7HashMapINSt7__cxx1112basic_stringIcSt11char_traitsIcESaIcEEEiSt4hashIS5_EE7ElementD2Ev
	.weak	_ZN7HashMapINSt7__cxx1112basic_stringIcSt11char_traitsIcESaIcEEEiSt4hashIS5_EE7ElementD1Ev
	.set	_ZN7HashMapINSt7__cxx1112basic_stringIcSt11char_traitsIcESaIcEEEiSt4hashIS5_EE7ElementD1Ev,_ZN7HashMapINSt7__cxx1112basic_stringIcSt11char_traitsIcESaIcEEEiSt4hashIS5_EE7ElementD2Ev
	.section	.text._ZN7HashMapINSt7__cxx1112basic_stringIcSt11char_traitsIcESaIcEEEiSt4hashIS5_EE7ElementaSEOS9_,"axG",@progbits,_ZN7HashMapINSt7__cxx1112basic_stringIcSt11char_traitsIcESaIcEEEiSt4hashIS5_EE7ElementaSEOS9_,comdat
	.align 2
	.weak	_ZN7HashMapINSt7__cxx1112basic_stringIcSt11char_traitsIcESaIcEEEiSt4hashIS5_EE7ElementaSEOS9_
	.type	_ZN7HashMapINSt7__cxx1112basic_stringIcSt11char_traitsIcESaIcEEEiSt4hashIS5_EE7ElementaSEOS9_, @function
_ZN7HashMapINSt7__cxx1112basic_stringIcSt11char_traitsIcESaIcEEEiSt4hashIS5_EE7ElementaSEOS9_:
.LFB3523:
	.cfi_startproc
	pushq	%rbp
	.cfi_def_cfa_offset 16
	.cfi_offset 6, -16
	movq	%rsp, %rbp
	.cfi_def_cfa_register 6
	subq	$16, %rsp
	movq	%rdi, -8(%rbp)
	movq	%rsi, -16(%rbp)
	movq	-16(%rbp), %rdx
	movq	-8(%rbp), %rax
	movq	%rdx, %rsi
	movq	%rax, %rdi
	call	_ZNSt7__cxx1112basic_stringIcSt11char_traitsIcESaIcEEaSEOS4_@PLT
	movq	-16(%rbp), %rax
	movl	32(%rax), %edx
	movq	-8(%rbp), %rax
	movl	%edx, 32(%rax)
	movq	-16(%rbp), %rax
	movzbl	36(%rax), %edx
	movq	-8(%rbp), %rax
	movb	%dl, 36(%rax)
	movq	-16(%rbp), %rax
	movzbl	37(%rax), %edx
	movq	-8(%rbp), %rax
	movb	%dl, 37(%rax)
	movq	-8(%rbp), %rax
	leave
	.cfi_def_cfa 7, 8
	ret
	.cfi_endproc
.LFE3523:
	.size	_ZN7HashMapINSt7__cxx1112basic_stringIcSt11char_traitsIcESaIcEEEiSt4hashIS5_EE7ElementaSEOS9_, .-_ZN7HashMapINSt7__cxx1112basic_stringIcSt11char_traitsIcESaIcEEEiSt4hashIS5_EE7ElementaSEOS9_
	.section	.text._ZN7HashMapINSt7__cxx1112basic_stringIcSt11char_traitsIcESaIcEEEiSt4hashIS5_EE6InsertES5_i,"axG",@progbits,_ZN7HashMapINSt7__cxx1112basic_stringIcSt11char_traitsIcESaIcEEEiSt4hashIS5_EE6InsertES5_i,comdat
	.align 2
	.weak	_ZN7HashMapINSt7__cxx1112basic_stringIcSt11char_traitsIcESaIcEEEiSt4hashIS5_EE6InsertES5_i
	.type	_ZN7HashMapINSt7__cxx1112basic_stringIcSt11char_traitsIcESaIcEEEiSt4hashIS5_EE6InsertES5_i, @function
_ZN7HashMapINSt7__cxx1112basic_stringIcSt11char_traitsIcESaIcEEEiSt4hashIS5_EE6InsertES5_i:
.LFB3519:
	.cfi_startproc
	pushq	%rbp
	.cfi_def_cfa_offset 16
	.cfi_offset 6, -16
	movq	%rsp, %rbp
	.cfi_def_cfa_register 6
	pushq	%rbx
	subq	$136, %rsp
	.cfi_offset 3, -24
	movq	%rdi, -120(%rbp)
	movq	%rsi, -128(%rbp)
	movl	%edx, -132(%rbp)
	movq	%fs:40, %rax
	movq	%rax, -24(%rbp)
	xorl	%eax, %eax
	movq	-120(%rbp), %rax
	movq	%rax, %rdi
	call	_ZN7HashMapINSt7__cxx1112basic_stringIcSt11char_traitsIcESaIcEEEiSt4hashIS5_EE13GetLoadFactorEv
	comisd	.LC1(%rip), %xmm0
	seta	%al
	testb	%al, %al
	je	.L77
	movq	-120(%rbp), %rax
	movq	8(%rax), %rax
	leaq	(%rax,%rax), %rdx
	movq	-120(%rbp), %rax
	movq	%rdx, %rsi
	movq	%rax, %rdi
	call	_ZN7HashMapINSt7__cxx1112basic_stringIcSt11char_traitsIcESaIcEEEiSt4hashIS5_EE6RehashEm
.L77:
	movq	-128(%rbp), %rdx
	leaq	-80(%rbp), %rax
	movq	%rdx, %rsi
	movq	%rax, %rdi
	call	_ZNKSt4hashINSt7__cxx1112basic_stringIcSt11char_traitsIcESaIcEEEEclERKS5_
	movq	-120(%rbp), %rdx
	movq	8(%rdx), %rcx
	movl	$0, %edx
	divq	%rcx
	movq	%rdx, -104(%rbp)
.L81:
	movq	-104(%rbp), %rdx
	movq	-120(%rbp), %rax
	movl	$1, %esi
	movq	%rax, %rdi
	call	_ZN7HashMapINSt7__cxx1112basic_stringIcSt11char_traitsIcESaIcEEEiSt4hashIS5_EE7IsValidENS8_13OperationTypeEm
	testb	%al, %al
	je	.L78
	movq	-120(%rbp), %rax
	leaq	16(%rax), %rdx
	movq	-104(%rbp), %rax
	movq	%rax, %rsi
	movq	%rdx, %rdi
	call	_ZNSt6vectorIN7HashMapINSt7__cxx1112basic_stringIcSt11char_traitsIcESaIcEEEiSt4hashIS6_EE7ElementESaISA_EEixEm
	movq	%rax, %rdx
	movq	-128(%rbp), %rax
	movq	%rax, %rsi
	movq	%rdx, %rdi
	call	_ZSteqIcEN9__gnu_cxx11__enable_ifIXsrSt9__is_charIT_E7__valueEbE6__typeERKNSt7__cxx1112basic_stringIS3_St11char_traitsIS3_ESaIS3_EEESE_
	testb	%al, %al
	je	.L79
	leaq	-96(%rbp), %rax
	movl	$1, %esi
	movq	%rax, %rdi
	call	_ZNSt10error_codeC1I9ErrorCodevEET_
	leaq	-80(%rbp), %rax
	movl	-96(%rbp), %ecx
	movq	-88(%rbp), %rdx
	movl	%ecx, %esi
	movq	%rax, %rdi
	call	_ZN11make_result4FailESt10error_code@PLT
	leaq	-80(%rbp), %rax
	movq	%rax, %rdi
	call	_ZN7Failurecv5MaybeIT_EIvEEv
	movq	%rdx, %rcx
	movq	%rcx, %rdx
	jmp	.L80
.L79:
	movq	-104(%rbp), %rdx
	movq	-120(%rbp), %rax
	movq	%rdx, %rsi
	movq	%rax, %rdi
	call	_ZN7HashMapINSt7__cxx1112basic_stringIcSt11char_traitsIcESaIcEEEiSt4hashIS5_EE15GetNextPositionEm
	movq	%rax, -104(%rbp)
	jmp	.L81
.L78:
	leaq	-132(%rbp), %rdx
	movq	-128(%rbp), %rcx
	leaq	-64(%rbp), %rax
	movq	%rcx, %rsi
	movq	%rax, %rdi
	call	_ZN7HashMapINSt7__cxx1112basic_stringIcSt11char_traitsIcESaIcEEEiSt4hashIS5_EE7ElementC1ERKS5_RKi
	movq	-120(%rbp), %rax
	leaq	16(%rax), %rdx
	movq	-104(%rbp), %rax
	movq	%rax, %rsi
	movq	%rdx, %rdi
	call	_ZNSt6vectorIN7HashMapINSt7__cxx1112basic_stringIcSt11char_traitsIcESaIcEEEiSt4hashIS6_EE7ElementESaISA_EEixEm
	movq	%rax, %rdx
	leaq	-64(%rbp), %rax
	movq	%rax, %rsi
	movq	%rdx, %rdi
	call	_ZN7HashMapINSt7__cxx1112basic_stringIcSt11char_traitsIcESaIcEEEiSt4hashIS5_EE7ElementaSEOS9_
	leaq	-64(%rbp), %rax
	movq	%rax, %rdi
	call	_ZN7HashMapINSt7__cxx1112basic_stringIcSt11char_traitsIcESaIcEEEiSt4hashIS5_EE7ElementD1Ev
	movq	-120(%rbp), %rax
	movq	(%rax), %rax
	leaq	1(%rax), %rdx
	movq	-120(%rbp), %rax
	movq	%rdx, (%rax)
	call	_ZN11make_result2OkEv@PLT
	movq	%rdx, %rcx
	movq	%rcx, %rdx
	nop
.L80:
	movq	%rax, %rcx
	movq	%rdx, %rbx
	movq	-24(%rbp), %rax
	xorq	%fs:40, %rax
	je	.L82
	call	__stack_chk_fail@PLT
.L82:
	movl	%ecx, %eax
	addq	$136, %rsp
	popq	%rbx
	popq	%rbp
	.cfi_def_cfa 7, 8
	ret
	.cfi_endproc
.LFE3519:
	.size	_ZN7HashMapINSt7__cxx1112basic_stringIcSt11char_traitsIcESaIcEEEiSt4hashIS5_EE6InsertES5_i, .-_ZN7HashMapINSt7__cxx1112basic_stringIcSt11char_traitsIcESaIcEEEiSt4hashIS5_EE6InsertES5_i
	.section	.text._ZN7HashMapINSt7__cxx1112basic_stringIcSt11char_traitsIcESaIcEEEiSt4hashIS5_EE3GetERKS5_,"axG",@progbits,_ZN7HashMapINSt7__cxx1112basic_stringIcSt11char_traitsIcESaIcEEEiSt4hashIS5_EE3GetERKS5_,comdat
	.align 2
	.weak	_ZN7HashMapINSt7__cxx1112basic_stringIcSt11char_traitsIcESaIcEEEiSt4hashIS5_EE3GetERKS5_
	.type	_ZN7HashMapINSt7__cxx1112basic_stringIcSt11char_traitsIcESaIcEEEiSt4hashIS5_EE3GetERKS5_, @function
_ZN7HashMapINSt7__cxx1112basic_stringIcSt11char_traitsIcESaIcEEEiSt4hashIS5_EE3GetERKS5_:
.LFB3524:
	.cfi_startproc
	pushq	%rbp
	.cfi_def_cfa_offset 16
	.cfi_offset 6, -16
	movq	%rsp, %rbp
	.cfi_def_cfa_register 6
	subq	$96, %rsp
	movq	%rdi, -72(%rbp)
	movq	%rsi, -80(%rbp)
	movq	%rdx, -88(%rbp)
	movq	%fs:40, %rax
	movq	%rax, -8(%rbp)
	xorl	%eax, %eax
	movq	-88(%rbp), %rdx
	leaq	-32(%rbp), %rax
	movq	%rdx, %rsi
	movq	%rax, %rdi
	call	_ZNKSt4hashINSt7__cxx1112basic_stringIcSt11char_traitsIcESaIcEEEEclERKS5_
	movq	-80(%rbp), %rdx
	movq	8(%rdx), %rcx
	movl	$0, %edx
	divq	%rcx
	movq	%rdx, -56(%rbp)
.L88:
	movq	-56(%rbp), %rdx
	movq	-80(%rbp), %rax
	movl	$0, %esi
	movq	%rax, %rdi
	call	_ZN7HashMapINSt7__cxx1112basic_stringIcSt11char_traitsIcESaIcEEEiSt4hashIS5_EE7IsValidENS8_13OperationTypeEm
	testb	%al, %al
	je	.L84
	movq	-80(%rbp), %rax
	leaq	16(%rax), %rdx
	movq	-56(%rbp), %rax
	movq	%rax, %rsi
	movq	%rdx, %rdi
	call	_ZNSt6vectorIN7HashMapINSt7__cxx1112basic_stringIcSt11char_traitsIcESaIcEEEiSt4hashIS6_EE7ElementESaISA_EEixEm
	movq	%rax, %rdx
	movq	-88(%rbp), %rax
	movq	%rax, %rsi
	movq	%rdx, %rdi
	call	_ZSteqIcEN9__gnu_cxx11__enable_ifIXsrSt9__is_charIT_E7__valueEbE6__typeERKNSt7__cxx1112basic_stringIS3_St11char_traitsIS3_ESaIS3_EEESE_
	testb	%al, %al
	je	.L85
	movq	-80(%rbp), %rax
	leaq	16(%rax), %rdx
	movq	-56(%rbp), %rax
	movq	%rax, %rsi
	movq	%rdx, %rdi
	call	_ZNSt6vectorIN7HashMapINSt7__cxx1112basic_stringIcSt11char_traitsIcESaIcEEEiSt4hashIS6_EE7ElementESaISA_EEixEm
	movq	%rax, %rdi
	call	_ZNK7HashMapINSt7__cxx1112basic_stringIcSt11char_traitsIcESaIcEEEiSt4hashIS5_EE7Element7DeletedEv
	xorl	$1, %eax
	testb	%al, %al
	je	.L86
	movq	-80(%rbp), %rax
	leaq	16(%rax), %rdx
	movq	-56(%rbp), %rax
	movq	%rax, %rsi
	movq	%rdx, %rdi
	call	_ZNSt6vectorIN7HashMapINSt7__cxx1112basic_stringIcSt11char_traitsIcESaIcEEEiSt4hashIS6_EE7ElementESaISA_EEixEm
	leaq	32(%rax), %rdx
	movq	-72(%rbp), %rax
	movq	%rdx, %rsi
	movq	%rax, %rdi
	call	_ZN11make_result2OkIiEE5MaybeIT_ERS2_
	jmp	.L83
.L86:
	leaq	-48(%rbp), %rax
	movl	$2, %esi
	movq	%rax, %rdi
	call	_ZNSt10error_codeC1I9ErrorCodevEET_
	leaq	-32(%rbp), %rax
	movl	-48(%rbp), %ecx
	movq	-40(%rbp), %rdx
	movl	%ecx, %esi
	movq	%rax, %rdi
	call	_ZN11make_result4FailESt10error_code@PLT
	movq	-72(%rbp), %rax
	leaq	-32(%rbp), %rdx
	movq	%rdx, %rsi
	movq	%rax, %rdi
	call	_ZN7Failurecv5MaybeIT_EIiEEv
	jmp	.L83
.L85:
	movq	-56(%rbp), %rdx
	movq	-80(%rbp), %rax
	movq	%rdx, %rsi
	movq	%rax, %rdi
	call	_ZN7HashMapINSt7__cxx1112basic_stringIcSt11char_traitsIcESaIcEEEiSt4hashIS5_EE15GetNextPositionEm
	movq	%rax, -56(%rbp)
	jmp	.L88
.L84:
	leaq	-48(%rbp), %rax
	movl	$2, %esi
	movq	%rax, %rdi
	call	_ZNSt10error_codeC1I9ErrorCodevEET_
	leaq	-32(%rbp), %rax
	movl	-48(%rbp), %ecx
	movq	-40(%rbp), %rdx
	movl	%ecx, %esi
	movq	%rax, %rdi
	call	_ZN11make_result4FailESt10error_code@PLT
	movq	-72(%rbp), %rax
	leaq	-32(%rbp), %rdx
	movq	%rdx, %rsi
	movq	%rax, %rdi
	call	_ZN7Failurecv5MaybeIT_EIiEEv
.L83:
	movq	-8(%rbp), %rax
	xorq	%fs:40, %rax
	je	.L89
	call	__stack_chk_fail@PLT
.L89:
	movq	-72(%rbp), %rax
	leave
	.cfi_def_cfa 7, 8
	ret
	.cfi_endproc
.LFE3524:
	.size	_ZN7HashMapINSt7__cxx1112basic_stringIcSt11char_traitsIcESaIcEEEiSt4hashIS5_EE3GetERKS5_, .-_ZN7HashMapINSt7__cxx1112basic_stringIcSt11char_traitsIcESaIcEEEiSt4hashIS5_EE3GetERKS5_
	.section	.text._ZNSt7__cxx1112basic_stringIcSt11char_traitsIcESaIcEEC2IPcvEET_S7_RKS3_,"axG",@progbits,_ZNSt7__cxx1112basic_stringIcSt11char_traitsIcESaIcEEC5IPcvEET_S7_RKS3_,comdat
	.align 2
	.weak	_ZNSt7__cxx1112basic_stringIcSt11char_traitsIcESaIcEEC2IPcvEET_S7_RKS3_
	.type	_ZNSt7__cxx1112basic_stringIcSt11char_traitsIcESaIcEEC2IPcvEET_S7_RKS3_, @function
_ZNSt7__cxx1112basic_stringIcSt11char_traitsIcESaIcEEC2IPcvEET_S7_RKS3_:
.LFB3527:
	.cfi_startproc
	.cfi_personality 0x9b,DW.ref.__gxx_personality_v0
	.cfi_lsda 0x1b,.LLSDA3527
	pushq	%rbp
	.cfi_def_cfa_offset 16
	.cfi_offset 6, -16
	movq	%rsp, %rbp
	.cfi_def_cfa_register 6
	pushq	%rbx
	subq	$40, %rsp
	.cfi_offset 3, -24
	movq	%rdi, -24(%rbp)
	movq	%rsi, -32(%rbp)
	movq	%rdx, -40(%rbp)
	movq	%rcx, -48(%rbp)
	movq	-24(%rbp), %rbx
	movq	-24(%rbp), %rax
	movq	%rax, %rdi
.LEHB10:
	call	_ZNSt7__cxx1112basic_stringIcSt11char_traitsIcESaIcEE13_M_local_dataEv@PLT
	movq	%rax, %rcx
	movq	-48(%rbp), %rax
	movq	%rax, %rdx
	movq	%rcx, %rsi
	movq	%rbx, %rdi
	call	_ZNSt7__cxx1112basic_stringIcSt11char_traitsIcESaIcEE12_Alloc_hiderC1EPcRKS3_@PLT
.LEHE10:
	movq	-40(%rbp), %rdx
	movq	-32(%rbp), %rcx
	movq	-24(%rbp), %rax
	movq	%rcx, %rsi
	movq	%rax, %rdi
.LEHB11:
	call	_ZNSt7__cxx1112basic_stringIcSt11char_traitsIcESaIcEE12_M_constructIPcEEvT_S7_
.LEHE11:
	jmp	.L93
.L92:
	movq	%rax, %rbx
	movq	-24(%rbp), %rax
	movq	%rax, %rdi
	call	_ZNSt7__cxx1112basic_stringIcSt11char_traitsIcESaIcEE12_Alloc_hiderD1Ev
	movq	%rbx, %rax
	movq	%rax, %rdi
.LEHB12:
	call	_Unwind_Resume@PLT
.LEHE12:
.L93:
	addq	$40, %rsp
	popq	%rbx
	popq	%rbp
	.cfi_def_cfa 7, 8
	ret
	.cfi_endproc
.LFE3527:
	.section	.gcc_except_table
.LLSDA3527:
	.byte	0xff
	.byte	0xff
	.byte	0x1
	.uleb128 .LLSDACSE3527-.LLSDACSB3527
.LLSDACSB3527:
	.uleb128 .LEHB10-.LFB3527
	.uleb128 .LEHE10-.LEHB10
	.uleb128 0
	.uleb128 0
	.uleb128 .LEHB11-.LFB3527
	.uleb128 .LEHE11-.LEHB11
	.uleb128 .L92-.LFB3527
	.uleb128 0
	.uleb128 .LEHB12-.LFB3527
	.uleb128 .LEHE12-.LEHB12
	.uleb128 0
	.uleb128 0
.LLSDACSE3527:
	.section	.text._ZNSt7__cxx1112basic_stringIcSt11char_traitsIcESaIcEEC2IPcvEET_S7_RKS3_,"axG",@progbits,_ZNSt7__cxx1112basic_stringIcSt11char_traitsIcESaIcEEC5IPcvEET_S7_RKS3_,comdat
	.size	_ZNSt7__cxx1112basic_stringIcSt11char_traitsIcESaIcEEC2IPcvEET_S7_RKS3_, .-_ZNSt7__cxx1112basic_stringIcSt11char_traitsIcESaIcEEC2IPcvEET_S7_RKS3_
	.weak	_ZNSt7__cxx1112basic_stringIcSt11char_traitsIcESaIcEEC1IPcvEET_S7_RKS3_
	.set	_ZNSt7__cxx1112basic_stringIcSt11char_traitsIcESaIcEEC1IPcvEET_S7_RKS3_,_ZNSt7__cxx1112basic_stringIcSt11char_traitsIcESaIcEEC2IPcvEET_S7_RKS3_
	.section	.text._ZSt4moveIRNSt7__cxx1112basic_stringIcSt11char_traitsIcESaIcEEEEONSt16remove_referenceIT_E4typeEOS8_,"axG",@progbits,_ZSt4moveIRNSt7__cxx1112basic_stringIcSt11char_traitsIcESaIcEEEEONSt16remove_referenceIT_E4typeEOS8_,comdat
	.weak	_ZSt4moveIRNSt7__cxx1112basic_stringIcSt11char_traitsIcESaIcEEEEONSt16remove_referenceIT_E4typeEOS8_
	.type	_ZSt4moveIRNSt7__cxx1112basic_stringIcSt11char_traitsIcESaIcEEEEONSt16remove_referenceIT_E4typeEOS8_, @function
_ZSt4moveIRNSt7__cxx1112basic_stringIcSt11char_traitsIcESaIcEEEEONSt16remove_referenceIT_E4typeEOS8_:
.LFB3590:
	.cfi_startproc
	pushq	%rbp
	.cfi_def_cfa_offset 16
	.cfi_offset 6, -16
	movq	%rsp, %rbp
	.cfi_def_cfa_register 6
	movq	%rdi, -8(%rbp)
	movq	-8(%rbp), %rax
	popq	%rbp
	.cfi_def_cfa 7, 8
	ret
	.cfi_endproc
.LFE3590:
	.size	_ZSt4moveIRNSt7__cxx1112basic_stringIcSt11char_traitsIcESaIcEEEEONSt16remove_referenceIT_E4typeEOS8_, .-_ZSt4moveIRNSt7__cxx1112basic_stringIcSt11char_traitsIcESaIcEEEEONSt16remove_referenceIT_E4typeEOS8_
	.section	.text._ZNSt12_Vector_baseIN7HashMapINSt7__cxx1112basic_stringIcSt11char_traitsIcESaIcEEEiSt4hashIS6_EE7ElementESaISA_EE12_Vector_implC2Ev,"axG",@progbits,_ZNSt12_Vector_baseIN7HashMapINSt7__cxx1112basic_stringIcSt11char_traitsIcESaIcEEEiSt4hashIS6_EE7ElementESaISA_EE12_Vector_implC5Ev,comdat
	.align 2
	.weak	_ZNSt12_Vector_baseIN7HashMapINSt7__cxx1112basic_stringIcSt11char_traitsIcESaIcEEEiSt4hashIS6_EE7ElementESaISA_EE12_Vector_implC2Ev
	.type	_ZNSt12_Vector_baseIN7HashMapINSt7__cxx1112basic_stringIcSt11char_traitsIcESaIcEEEiSt4hashIS6_EE7ElementESaISA_EE12_Vector_implC2Ev, @function
_ZNSt12_Vector_baseIN7HashMapINSt7__cxx1112basic_stringIcSt11char_traitsIcESaIcEEEiSt4hashIS6_EE7ElementESaISA_EE12_Vector_implC2Ev:
.LFB3608:
	.cfi_startproc
	pushq	%rbp
	.cfi_def_cfa_offset 16
	.cfi_offset 6, -16
	movq	%rsp, %rbp
	.cfi_def_cfa_register 6
	subq	$16, %rsp
	movq	%rdi, -8(%rbp)
	movq	-8(%rbp), %rax
	movq	%rax, %rdi
	call	_ZNSaIN7HashMapINSt7__cxx1112basic_stringIcSt11char_traitsIcESaIcEEEiSt4hashIS5_EE7ElementEEC2Ev
	movq	-8(%rbp), %rax
	movq	%rax, %rdi
	call	_ZNSt12_Vector_baseIN7HashMapINSt7__cxx1112basic_stringIcSt11char_traitsIcESaIcEEEiSt4hashIS6_EE7ElementESaISA_EE17_Vector_impl_dataC2Ev
	nop
	leave
	.cfi_def_cfa 7, 8
	ret
	.cfi_endproc
.LFE3608:
	.size	_ZNSt12_Vector_baseIN7HashMapINSt7__cxx1112basic_stringIcSt11char_traitsIcESaIcEEEiSt4hashIS6_EE7ElementESaISA_EE12_Vector_implC2Ev, .-_ZNSt12_Vector_baseIN7HashMapINSt7__cxx1112basic_stringIcSt11char_traitsIcESaIcEEEiSt4hashIS6_EE7ElementESaISA_EE12_Vector_implC2Ev
	.weak	_ZNSt12_Vector_baseIN7HashMapINSt7__cxx1112basic_stringIcSt11char_traitsIcESaIcEEEiSt4hashIS6_EE7ElementESaISA_EE12_Vector_implC1Ev
	.set	_ZNSt12_Vector_baseIN7HashMapINSt7__cxx1112basic_stringIcSt11char_traitsIcESaIcEEEiSt4hashIS6_EE7ElementESaISA_EE12_Vector_implC1Ev,_ZNSt12_Vector_baseIN7HashMapINSt7__cxx1112basic_stringIcSt11char_traitsIcESaIcEEEiSt4hashIS6_EE7ElementESaISA_EE12_Vector_implC2Ev
	.section	.text._ZNSaIN7HashMapINSt7__cxx1112basic_stringIcSt11char_traitsIcESaIcEEEiSt4hashIS5_EE7ElementEED2Ev,"axG",@progbits,_ZNSaIN7HashMapINSt7__cxx1112basic_stringIcSt11char_traitsIcESaIcEEEiSt4hashIS5_EE7ElementEED5Ev,comdat
	.align 2
	.weak	_ZNSaIN7HashMapINSt7__cxx1112basic_stringIcSt11char_traitsIcESaIcEEEiSt4hashIS5_EE7ElementEED2Ev
	.type	_ZNSaIN7HashMapINSt7__cxx1112basic_stringIcSt11char_traitsIcESaIcEEEiSt4hashIS5_EE7ElementEED2Ev, @function
_ZNSaIN7HashMapINSt7__cxx1112basic_stringIcSt11char_traitsIcESaIcEEEiSt4hashIS5_EE7ElementEED2Ev:
.LFB3611:
	.cfi_startproc
	pushq	%rbp
	.cfi_def_cfa_offset 16
	.cfi_offset 6, -16
	movq	%rsp, %rbp
	.cfi_def_cfa_register 6
	subq	$16, %rsp
	movq	%rdi, -8(%rbp)
	movq	-8(%rbp), %rax
	movq	%rax, %rdi
	call	_ZN9__gnu_cxx13new_allocatorIN7HashMapINSt7__cxx1112basic_stringIcSt11char_traitsIcESaIcEEEiSt4hashIS7_EE7ElementEED2Ev
	nop
	leave
	.cfi_def_cfa 7, 8
	ret
	.cfi_endproc
.LFE3611:
	.size	_ZNSaIN7HashMapINSt7__cxx1112basic_stringIcSt11char_traitsIcESaIcEEEiSt4hashIS5_EE7ElementEED2Ev, .-_ZNSaIN7HashMapINSt7__cxx1112basic_stringIcSt11char_traitsIcESaIcEEEiSt4hashIS5_EE7ElementEED2Ev
	.weak	_ZNSaIN7HashMapINSt7__cxx1112basic_stringIcSt11char_traitsIcESaIcEEEiSt4hashIS5_EE7ElementEED1Ev
	.set	_ZNSaIN7HashMapINSt7__cxx1112basic_stringIcSt11char_traitsIcESaIcEEEiSt4hashIS5_EE7ElementEED1Ev,_ZNSaIN7HashMapINSt7__cxx1112basic_stringIcSt11char_traitsIcESaIcEEEiSt4hashIS5_EE7ElementEED2Ev
	.section	.text._ZNSt12_Vector_baseIN7HashMapINSt7__cxx1112basic_stringIcSt11char_traitsIcESaIcEEEiSt4hashIS6_EE7ElementESaISA_EED2Ev,"axG",@progbits,_ZNSt12_Vector_baseIN7HashMapINSt7__cxx1112basic_stringIcSt11char_traitsIcESaIcEEEiSt4hashIS6_EE7ElementESaISA_EED5Ev,comdat
	.align 2
	.weak	_ZNSt12_Vector_baseIN7HashMapINSt7__cxx1112basic_stringIcSt11char_traitsIcESaIcEEEiSt4hashIS6_EE7ElementESaISA_EED2Ev
	.type	_ZNSt12_Vector_baseIN7HashMapINSt7__cxx1112basic_stringIcSt11char_traitsIcESaIcEEEiSt4hashIS6_EE7ElementESaISA_EED2Ev, @function
_ZNSt12_Vector_baseIN7HashMapINSt7__cxx1112basic_stringIcSt11char_traitsIcESaIcEEEiSt4hashIS6_EE7ElementESaISA_EED2Ev:
.LFB3614:
	.cfi_startproc
	.cfi_personality 0x9b,DW.ref.__gxx_personality_v0
	.cfi_lsda 0x1b,.LLSDA3614
	pushq	%rbp
	.cfi_def_cfa_offset 16
	.cfi_offset 6, -16
	movq	%rsp, %rbp
	.cfi_def_cfa_register 6
	subq	$16, %rsp
	movq	%rdi, -8(%rbp)
	movq	-8(%rbp), %rax
	movq	16(%rax), %rdx
	movq	-8(%rbp), %rax
	movq	(%rax), %rax
	subq	%rax, %rdx
	movq	%rdx, %rax
	sarq	$3, %rax
	movq	%rax, %rdx
	movabsq	$-3689348814741910323, %rax
	imulq	%rdx, %rax
	movq	%rax, %rdx
	movq	-8(%rbp), %rax
	movq	(%rax), %rcx
	movq	-8(%rbp), %rax
	movq	%rcx, %rsi
	movq	%rax, %rdi
	call	_ZNSt12_Vector_baseIN7HashMapINSt7__cxx1112basic_stringIcSt11char_traitsIcESaIcEEEiSt4hashIS6_EE7ElementESaISA_EE13_M_deallocateEPSA_m
	movq	-8(%rbp), %rax
	movq	%rax, %rdi
	call	_ZNSt12_Vector_baseIN7HashMapINSt7__cxx1112basic_stringIcSt11char_traitsIcESaIcEEEiSt4hashIS6_EE7ElementESaISA_EE12_Vector_implD1Ev
	nop
	leave
	.cfi_def_cfa 7, 8
	ret
	.cfi_endproc
.LFE3614:
	.section	.gcc_except_table
.LLSDA3614:
	.byte	0xff
	.byte	0xff
	.byte	0x1
	.uleb128 .LLSDACSE3614-.LLSDACSB3614
.LLSDACSB3614:
.LLSDACSE3614:
	.section	.text._ZNSt12_Vector_baseIN7HashMapINSt7__cxx1112basic_stringIcSt11char_traitsIcESaIcEEEiSt4hashIS6_EE7ElementESaISA_EED2Ev,"axG",@progbits,_ZNSt12_Vector_baseIN7HashMapINSt7__cxx1112basic_stringIcSt11char_traitsIcESaIcEEEiSt4hashIS6_EE7ElementESaISA_EED5Ev,comdat
	.size	_ZNSt12_Vector_baseIN7HashMapINSt7__cxx1112basic_stringIcSt11char_traitsIcESaIcEEEiSt4hashIS6_EE7ElementESaISA_EED2Ev, .-_ZNSt12_Vector_baseIN7HashMapINSt7__cxx1112basic_stringIcSt11char_traitsIcESaIcEEEiSt4hashIS6_EE7ElementESaISA_EED2Ev
	.weak	_ZNSt12_Vector_baseIN7HashMapINSt7__cxx1112basic_stringIcSt11char_traitsIcESaIcEEEiSt4hashIS6_EE7ElementESaISA_EED1Ev
	.set	_ZNSt12_Vector_baseIN7HashMapINSt7__cxx1112basic_stringIcSt11char_traitsIcESaIcEEEiSt4hashIS6_EE7ElementESaISA_EED1Ev,_ZNSt12_Vector_baseIN7HashMapINSt7__cxx1112basic_stringIcSt11char_traitsIcESaIcEEEiSt4hashIS6_EE7ElementESaISA_EED2Ev
	.section	.text._ZNSt6vectorIN7HashMapINSt7__cxx1112basic_stringIcSt11char_traitsIcESaIcEEEiSt4hashIS6_EE7ElementESaISA_EE6resizeEm,"axG",@progbits,_ZNSt6vectorIN7HashMapINSt7__cxx1112basic_stringIcSt11char_traitsIcESaIcEEEiSt4hashIS6_EE7ElementESaISA_EE6resizeEm,comdat
	.align 2
	.weak	_ZNSt6vectorIN7HashMapINSt7__cxx1112basic_stringIcSt11char_traitsIcESaIcEEEiSt4hashIS6_EE7ElementESaISA_EE6resizeEm
	.type	_ZNSt6vectorIN7HashMapINSt7__cxx1112basic_stringIcSt11char_traitsIcESaIcEEEiSt4hashIS6_EE7ElementESaISA_EE6resizeEm, @function
_ZNSt6vectorIN7HashMapINSt7__cxx1112basic_stringIcSt11char_traitsIcESaIcEEEiSt4hashIS6_EE7ElementESaISA_EE6resizeEm:
.LFB3616:
	.cfi_startproc
	pushq	%rbp
	.cfi_def_cfa_offset 16
	.cfi_offset 6, -16
	movq	%rsp, %rbp
	.cfi_def_cfa_register 6
	subq	$16, %rsp
	movq	%rdi, -8(%rbp)
	movq	%rsi, -16(%rbp)
	movq	-8(%rbp), %rax
	movq	%rax, %rdi
	call	_ZNKSt6vectorIN7HashMapINSt7__cxx1112basic_stringIcSt11char_traitsIcESaIcEEEiSt4hashIS6_EE7ElementESaISA_EE4sizeEv
	cmpq	%rax, -16(%rbp)
	seta	%al
	testb	%al, %al
	je	.L100
	movq	-8(%rbp), %rax
	movq	%rax, %rdi
	call	_ZNKSt6vectorIN7HashMapINSt7__cxx1112basic_stringIcSt11char_traitsIcESaIcEEEiSt4hashIS6_EE7ElementESaISA_EE4sizeEv
	movq	-16(%rbp), %rdx
	subq	%rax, %rdx
	movq	-8(%rbp), %rax
	movq	%rdx, %rsi
	movq	%rax, %rdi
	call	_ZNSt6vectorIN7HashMapINSt7__cxx1112basic_stringIcSt11char_traitsIcESaIcEEEiSt4hashIS6_EE7ElementESaISA_EE17_M_default_appendEm
	jmp	.L102
.L100:
	movq	-8(%rbp), %rax
	movq	%rax, %rdi
	call	_ZNKSt6vectorIN7HashMapINSt7__cxx1112basic_stringIcSt11char_traitsIcESaIcEEEiSt4hashIS6_EE7ElementESaISA_EE4sizeEv
	cmpq	%rax, -16(%rbp)
	setb	%al
	testb	%al, %al
	je	.L102
	movq	-8(%rbp), %rax
	movq	(%rax), %rcx
	movq	-16(%rbp), %rdx
	movq	%rdx, %rax
	salq	$2, %rax
	addq	%rdx, %rax
	salq	$3, %rax
	leaq	(%rcx,%rax), %rdx
	movq	-8(%rbp), %rax
	movq	%rdx, %rsi
	movq	%rax, %rdi
	call	_ZNSt6vectorIN7HashMapINSt7__cxx1112basic_stringIcSt11char_traitsIcESaIcEEEiSt4hashIS6_EE7ElementESaISA_EE15_M_erase_at_endEPSA_
.L102:
	nop
	leave
	.cfi_def_cfa 7, 8
	ret
	.cfi_endproc
.LFE3616:
	.size	_ZNSt6vectorIN7HashMapINSt7__cxx1112basic_stringIcSt11char_traitsIcESaIcEEEiSt4hashIS6_EE7ElementESaISA_EE6resizeEm, .-_ZNSt6vectorIN7HashMapINSt7__cxx1112basic_stringIcSt11char_traitsIcESaIcEEEiSt4hashIS6_EE7ElementESaISA_EE6resizeEm
	.section	.text._ZNSt12_Vector_baseIN7HashMapINSt7__cxx1112basic_stringIcSt11char_traitsIcESaIcEEEiSt4hashIS6_EE7ElementESaISA_EE19_M_get_Tp_allocatorEv,"axG",@progbits,_ZNSt12_Vector_baseIN7HashMapINSt7__cxx1112basic_stringIcSt11char_traitsIcESaIcEEEiSt4hashIS6_EE7ElementESaISA_EE19_M_get_Tp_allocatorEv,comdat
	.align 2
	.weak	_ZNSt12_Vector_baseIN7HashMapINSt7__cxx1112basic_stringIcSt11char_traitsIcESaIcEEEiSt4hashIS6_EE7ElementESaISA_EE19_M_get_Tp_allocatorEv
	.type	_ZNSt12_Vector_baseIN7HashMapINSt7__cxx1112basic_stringIcSt11char_traitsIcESaIcEEEiSt4hashIS6_EE7ElementESaISA_EE19_M_get_Tp_allocatorEv, @function
_ZNSt12_Vector_baseIN7HashMapINSt7__cxx1112basic_stringIcSt11char_traitsIcESaIcEEEiSt4hashIS6_EE7ElementESaISA_EE19_M_get_Tp_allocatorEv:
.LFB3617:
	.cfi_startproc
	pushq	%rbp
	.cfi_def_cfa_offset 16
	.cfi_offset 6, -16
	movq	%rsp, %rbp
	.cfi_def_cfa_register 6
	movq	%rdi, -8(%rbp)
	movq	-8(%rbp), %rax
	popq	%rbp
	.cfi_def_cfa 7, 8
	ret
	.cfi_endproc
.LFE3617:
	.size	_ZNSt12_Vector_baseIN7HashMapINSt7__cxx1112basic_stringIcSt11char_traitsIcESaIcEEEiSt4hashIS6_EE7ElementESaISA_EE19_M_get_Tp_allocatorEv, .-_ZNSt12_Vector_baseIN7HashMapINSt7__cxx1112basic_stringIcSt11char_traitsIcESaIcEEEiSt4hashIS6_EE7ElementESaISA_EE19_M_get_Tp_allocatorEv
	.section	.text._ZSt8_DestroyIPN7HashMapINSt7__cxx1112basic_stringIcSt11char_traitsIcESaIcEEEiSt4hashIS6_EE7ElementESA_EvT_SC_RSaIT0_E,"axG",@progbits,_ZSt8_DestroyIPN7HashMapINSt7__cxx1112basic_stringIcSt11char_traitsIcESaIcEEEiSt4hashIS6_EE7ElementESA_EvT_SC_RSaIT0_E,comdat
	.weak	_ZSt8_DestroyIPN7HashMapINSt7__cxx1112basic_stringIcSt11char_traitsIcESaIcEEEiSt4hashIS6_EE7ElementESA_EvT_SC_RSaIT0_E
	.type	_ZSt8_DestroyIPN7HashMapINSt7__cxx1112basic_stringIcSt11char_traitsIcESaIcEEEiSt4hashIS6_EE7ElementESA_EvT_SC_RSaIT0_E, @function
_ZSt8_DestroyIPN7HashMapINSt7__cxx1112basic_stringIcSt11char_traitsIcESaIcEEEiSt4hashIS6_EE7ElementESA_EvT_SC_RSaIT0_E:
.LFB3618:
	.cfi_startproc
	pushq	%rbp
	.cfi_def_cfa_offset 16
	.cfi_offset 6, -16
	movq	%rsp, %rbp
	.cfi_def_cfa_register 6
	subq	$32, %rsp
	movq	%rdi, -8(%rbp)
	movq	%rsi, -16(%rbp)
	movq	%rdx, -24(%rbp)
	movq	-16(%rbp), %rdx
	movq	-8(%rbp), %rax
	movq	%rdx, %rsi
	movq	%rax, %rdi
	call	_ZSt8_DestroyIPN7HashMapINSt7__cxx1112basic_stringIcSt11char_traitsIcESaIcEEEiSt4hashIS6_EE7ElementEEvT_SC_
	nop
	leave
	.cfi_def_cfa 7, 8
	ret
	.cfi_endproc
.LFE3618:
	.size	_ZSt8_DestroyIPN7HashMapINSt7__cxx1112basic_stringIcSt11char_traitsIcESaIcEEEiSt4hashIS6_EE7ElementESA_EvT_SC_RSaIT0_E, .-_ZSt8_DestroyIPN7HashMapINSt7__cxx1112basic_stringIcSt11char_traitsIcESaIcEEEiSt4hashIS6_EE7ElementESA_EvT_SC_RSaIT0_E
	.section	.text._ZNSaINSt7__cxx1112basic_stringIcSt11char_traitsIcESaIcEEEEC2Ev,"axG",@progbits,_ZNSaINSt7__cxx1112basic_stringIcSt11char_traitsIcESaIcEEEEC5Ev,comdat
	.align 2
	.weak	_ZNSaINSt7__cxx1112basic_stringIcSt11char_traitsIcESaIcEEEEC2Ev
	.type	_ZNSaINSt7__cxx1112basic_stringIcSt11char_traitsIcESaIcEEEEC2Ev, @function
_ZNSaINSt7__cxx1112basic_stringIcSt11char_traitsIcESaIcEEEEC2Ev:
.LFB3620:
	.cfi_startproc
	pushq	%rbp
	.cfi_def_cfa_offset 16
	.cfi_offset 6, -16
	movq	%rsp, %rbp
	.cfi_def_cfa_register 6
	subq	$16, %rsp
	movq	%rdi, -8(%rbp)
	movq	-8(%rbp), %rax
	movq	%rax, %rdi
	call	_ZN9__gnu_cxx13new_allocatorINSt7__cxx1112basic_stringIcSt11char_traitsIcESaIcEEEEC2Ev
	nop
	leave
	.cfi_def_cfa 7, 8
	ret
	.cfi_endproc
.LFE3620:
	.size	_ZNSaINSt7__cxx1112basic_stringIcSt11char_traitsIcESaIcEEEEC2Ev, .-_ZNSaINSt7__cxx1112basic_stringIcSt11char_traitsIcESaIcEEEEC2Ev
	.weak	_ZNSaINSt7__cxx1112basic_stringIcSt11char_traitsIcESaIcEEEEC1Ev
	.set	_ZNSaINSt7__cxx1112basic_stringIcSt11char_traitsIcESaIcEEEEC1Ev,_ZNSaINSt7__cxx1112basic_stringIcSt11char_traitsIcESaIcEEEEC2Ev
	.section	.text._ZNSt12_Vector_baseINSt7__cxx1112basic_stringIcSt11char_traitsIcESaIcEEESaIS5_EE17_Vector_impl_dataC2Ev,"axG",@progbits,_ZNSt12_Vector_baseINSt7__cxx1112basic_stringIcSt11char_traitsIcESaIcEEESaIS5_EE17_Vector_impl_dataC5Ev,comdat
	.align 2
	.weak	_ZNSt12_Vector_baseINSt7__cxx1112basic_stringIcSt11char_traitsIcESaIcEEESaIS5_EE17_Vector_impl_dataC2Ev
	.type	_ZNSt12_Vector_baseINSt7__cxx1112basic_stringIcSt11char_traitsIcESaIcEEESaIS5_EE17_Vector_impl_dataC2Ev, @function
_ZNSt12_Vector_baseINSt7__cxx1112basic_stringIcSt11char_traitsIcESaIcEEESaIS5_EE17_Vector_impl_dataC2Ev:
.LFB3623:
	.cfi_startproc
	pushq	%rbp
	.cfi_def_cfa_offset 16
	.cfi_offset 6, -16
	movq	%rsp, %rbp
	.cfi_def_cfa_register 6
	movq	%rdi, -8(%rbp)
	movq	-8(%rbp), %rax
	movq	$0, (%rax)
	movq	-8(%rbp), %rax
	movq	$0, 8(%rax)
	movq	-8(%rbp), %rax
	movq	$0, 16(%rax)
	nop
	popq	%rbp
	.cfi_def_cfa 7, 8
	ret
	.cfi_endproc
.LFE3623:
	.size	_ZNSt12_Vector_baseINSt7__cxx1112basic_stringIcSt11char_traitsIcESaIcEEESaIS5_EE17_Vector_impl_dataC2Ev, .-_ZNSt12_Vector_baseINSt7__cxx1112basic_stringIcSt11char_traitsIcESaIcEEESaIS5_EE17_Vector_impl_dataC2Ev
	.weak	_ZNSt12_Vector_baseINSt7__cxx1112basic_stringIcSt11char_traitsIcESaIcEEESaIS5_EE17_Vector_impl_dataC1Ev
	.set	_ZNSt12_Vector_baseINSt7__cxx1112basic_stringIcSt11char_traitsIcESaIcEEESaIS5_EE17_Vector_impl_dataC1Ev,_ZNSt12_Vector_baseINSt7__cxx1112basic_stringIcSt11char_traitsIcESaIcEEESaIS5_EE17_Vector_impl_dataC2Ev
	.section	.text._ZN9__gnu_cxx13new_allocatorINSt7__cxx1112basic_stringIcSt11char_traitsIcESaIcEEEED2Ev,"axG",@progbits,_ZN9__gnu_cxx13new_allocatorINSt7__cxx1112basic_stringIcSt11char_traitsIcESaIcEEEED5Ev,comdat
	.align 2
	.weak	_ZN9__gnu_cxx13new_allocatorINSt7__cxx1112basic_stringIcSt11char_traitsIcESaIcEEEED2Ev
	.type	_ZN9__gnu_cxx13new_allocatorINSt7__cxx1112basic_stringIcSt11char_traitsIcESaIcEEEED2Ev, @function
_ZN9__gnu_cxx13new_allocatorINSt7__cxx1112basic_stringIcSt11char_traitsIcESaIcEEEED2Ev:
.LFB3626:
	.cfi_startproc
	pushq	%rbp
	.cfi_def_cfa_offset 16
	.cfi_offset 6, -16
	movq	%rsp, %rbp
	.cfi_def_cfa_register 6
	movq	%rdi, -8(%rbp)
	nop
	popq	%rbp
	.cfi_def_cfa 7, 8
	ret
	.cfi_endproc
.LFE3626:
	.size	_ZN9__gnu_cxx13new_allocatorINSt7__cxx1112basic_stringIcSt11char_traitsIcESaIcEEEED2Ev, .-_ZN9__gnu_cxx13new_allocatorINSt7__cxx1112basic_stringIcSt11char_traitsIcESaIcEEEED2Ev
	.weak	_ZN9__gnu_cxx13new_allocatorINSt7__cxx1112basic_stringIcSt11char_traitsIcESaIcEEEED1Ev
	.set	_ZN9__gnu_cxx13new_allocatorINSt7__cxx1112basic_stringIcSt11char_traitsIcESaIcEEEED1Ev,_ZN9__gnu_cxx13new_allocatorINSt7__cxx1112basic_stringIcSt11char_traitsIcESaIcEEEED2Ev
	.section	.text._ZNSt12_Vector_baseINSt7__cxx1112basic_stringIcSt11char_traitsIcESaIcEEESaIS5_EE13_M_deallocateEPS5_m,"axG",@progbits,_ZNSt12_Vector_baseINSt7__cxx1112basic_stringIcSt11char_traitsIcESaIcEEESaIS5_EE13_M_deallocateEPS5_m,comdat
	.align 2
	.weak	_ZNSt12_Vector_baseINSt7__cxx1112basic_stringIcSt11char_traitsIcESaIcEEESaIS5_EE13_M_deallocateEPS5_m
	.type	_ZNSt12_Vector_baseINSt7__cxx1112basic_stringIcSt11char_traitsIcESaIcEEESaIS5_EE13_M_deallocateEPS5_m, @function
_ZNSt12_Vector_baseINSt7__cxx1112basic_stringIcSt11char_traitsIcESaIcEEESaIS5_EE13_M_deallocateEPS5_m:
.LFB3628:
	.cfi_startproc
	pushq	%rbp
	.cfi_def_cfa_offset 16
	.cfi_offset 6, -16
	movq	%rsp, %rbp
	.cfi_def_cfa_register 6
	subq	$32, %rsp
	movq	%rdi, -8(%rbp)
	movq	%rsi, -16(%rbp)
	movq	%rdx, -24(%rbp)
	cmpq	$0, -16(%rbp)
	je	.L111
	movq	-8(%rbp), %rax
	movq	-24(%rbp), %rdx
	movq	-16(%rbp), %rcx
	movq	%rcx, %rsi
	movq	%rax, %rdi
	call	_ZNSt16allocator_traitsISaINSt7__cxx1112basic_stringIcSt11char_traitsIcESaIcEEEEE10deallocateERS6_PS5_m
.L111:
	nop
	leave
	.cfi_def_cfa 7, 8
	ret
	.cfi_endproc
.LFE3628:
	.size	_ZNSt12_Vector_baseINSt7__cxx1112basic_stringIcSt11char_traitsIcESaIcEEESaIS5_EE13_M_deallocateEPS5_m, .-_ZNSt12_Vector_baseINSt7__cxx1112basic_stringIcSt11char_traitsIcESaIcEEESaIS5_EE13_M_deallocateEPS5_m
	.section	.text._ZNSt12_Vector_baseINSt7__cxx1112basic_stringIcSt11char_traitsIcESaIcEEESaIS5_EE19_M_get_Tp_allocatorEv,"axG",@progbits,_ZNSt12_Vector_baseINSt7__cxx1112basic_stringIcSt11char_traitsIcESaIcEEESaIS5_EE19_M_get_Tp_allocatorEv,comdat
	.align 2
	.weak	_ZNSt12_Vector_baseINSt7__cxx1112basic_stringIcSt11char_traitsIcESaIcEEESaIS5_EE19_M_get_Tp_allocatorEv
	.type	_ZNSt12_Vector_baseINSt7__cxx1112basic_stringIcSt11char_traitsIcESaIcEEESaIS5_EE19_M_get_Tp_allocatorEv, @function
_ZNSt12_Vector_baseINSt7__cxx1112basic_stringIcSt11char_traitsIcESaIcEEESaIS5_EE19_M_get_Tp_allocatorEv:
.LFB3629:
	.cfi_startproc
	pushq	%rbp
	.cfi_def_cfa_offset 16
	.cfi_offset 6, -16
	movq	%rsp, %rbp
	.cfi_def_cfa_register 6
	movq	%rdi, -8(%rbp)
	movq	-8(%rbp), %rax
	popq	%rbp
	.cfi_def_cfa 7, 8
	ret
	.cfi_endproc
.LFE3629:
	.size	_ZNSt12_Vector_baseINSt7__cxx1112basic_stringIcSt11char_traitsIcESaIcEEESaIS5_EE19_M_get_Tp_allocatorEv, .-_ZNSt12_Vector_baseINSt7__cxx1112basic_stringIcSt11char_traitsIcESaIcEEESaIS5_EE19_M_get_Tp_allocatorEv
	.section	.text._ZSt8_DestroyIPNSt7__cxx1112basic_stringIcSt11char_traitsIcESaIcEEES5_EvT_S7_RSaIT0_E,"axG",@progbits,_ZSt8_DestroyIPNSt7__cxx1112basic_stringIcSt11char_traitsIcESaIcEEES5_EvT_S7_RSaIT0_E,comdat
	.weak	_ZSt8_DestroyIPNSt7__cxx1112basic_stringIcSt11char_traitsIcESaIcEEES5_EvT_S7_RSaIT0_E
	.type	_ZSt8_DestroyIPNSt7__cxx1112basic_stringIcSt11char_traitsIcESaIcEEES5_EvT_S7_RSaIT0_E, @function
_ZSt8_DestroyIPNSt7__cxx1112basic_stringIcSt11char_traitsIcESaIcEEES5_EvT_S7_RSaIT0_E:
.LFB3630:
	.cfi_startproc
	pushq	%rbp
	.cfi_def_cfa_offset 16
	.cfi_offset 6, -16
	movq	%rsp, %rbp
	.cfi_def_cfa_register 6
	subq	$32, %rsp
	movq	%rdi, -8(%rbp)
	movq	%rsi, -16(%rbp)
	movq	%rdx, -24(%rbp)
	movq	-16(%rbp), %rdx
	movq	-8(%rbp), %rax
	movq	%rdx, %rsi
	movq	%rax, %rdi
	call	_ZSt8_DestroyIPNSt7__cxx1112basic_stringIcSt11char_traitsIcESaIcEEEEvT_S7_
	nop
	leave
	.cfi_def_cfa 7, 8
	ret
	.cfi_endproc
.LFE3630:
	.size	_ZSt8_DestroyIPNSt7__cxx1112basic_stringIcSt11char_traitsIcESaIcEEES5_EvT_S7_RSaIT0_E, .-_ZSt8_DestroyIPNSt7__cxx1112basic_stringIcSt11char_traitsIcESaIcEEES5_EvT_S7_RSaIT0_E
	.section	.text._ZNKSt6vectorINSt7__cxx1112basic_stringIcSt11char_traitsIcESaIcEEESaIS5_EE4sizeEv,"axG",@progbits,_ZNKSt6vectorINSt7__cxx1112basic_stringIcSt11char_traitsIcESaIcEEESaIS5_EE4sizeEv,comdat
	.align 2
	.weak	_ZNKSt6vectorINSt7__cxx1112basic_stringIcSt11char_traitsIcESaIcEEESaIS5_EE4sizeEv
	.type	_ZNKSt6vectorINSt7__cxx1112basic_stringIcSt11char_traitsIcESaIcEEESaIS5_EE4sizeEv, @function
_ZNKSt6vectorINSt7__cxx1112basic_stringIcSt11char_traitsIcESaIcEEESaIS5_EE4sizeEv:
.LFB3631:
	.cfi_startproc
	pushq	%rbp
	.cfi_def_cfa_offset 16
	.cfi_offset 6, -16
	movq	%rsp, %rbp
	.cfi_def_cfa_register 6
	movq	%rdi, -8(%rbp)
	movq	-8(%rbp), %rax
	movq	8(%rax), %rdx
	movq	-8(%rbp), %rax
	movq	(%rax), %rax
	subq	%rax, %rdx
	movq	%rdx, %rax
	sarq	$5, %rax
	popq	%rbp
	.cfi_def_cfa 7, 8
	ret
	.cfi_endproc
.LFE3631:
	.size	_ZNKSt6vectorINSt7__cxx1112basic_stringIcSt11char_traitsIcESaIcEEESaIS5_EE4sizeEv, .-_ZNKSt6vectorINSt7__cxx1112basic_stringIcSt11char_traitsIcESaIcEEESaIS5_EE4sizeEv
	.section	.rodata
.LC2:
	.string	"vector::_M_default_append"
	.section	.text._ZNSt6vectorINSt7__cxx1112basic_stringIcSt11char_traitsIcESaIcEEESaIS5_EE17_M_default_appendEm,"axG",@progbits,_ZNSt6vectorINSt7__cxx1112basic_stringIcSt11char_traitsIcESaIcEEESaIS5_EE17_M_default_appendEm,comdat
	.align 2
	.weak	_ZNSt6vectorINSt7__cxx1112basic_stringIcSt11char_traitsIcESaIcEEESaIS5_EE17_M_default_appendEm
	.type	_ZNSt6vectorINSt7__cxx1112basic_stringIcSt11char_traitsIcESaIcEEESaIS5_EE17_M_default_appendEm, @function
_ZNSt6vectorINSt7__cxx1112basic_stringIcSt11char_traitsIcESaIcEEESaIS5_EE17_M_default_appendEm:
.LFB3632:
	.cfi_startproc
	.cfi_personality 0x9b,DW.ref.__gxx_personality_v0
	.cfi_lsda 0x1b,.LLSDA3632
	pushq	%rbp
	.cfi_def_cfa_offset 16
	.cfi_offset 6, -16
	movq	%rsp, %rbp
	.cfi_def_cfa_register 6
	pushq	%rbx
	subq	$56, %rsp
	.cfi_offset 3, -24
	movq	%rdi, -56(%rbp)
	movq	%rsi, -64(%rbp)
	cmpq	$0, -64(%rbp)
	je	.L128
	movq	-56(%rbp), %rax
	movq	%rax, %rdi
	call	_ZNKSt6vectorINSt7__cxx1112basic_stringIcSt11char_traitsIcESaIcEEESaIS5_EE4sizeEv
	movq	%rax, -48(%rbp)
	movq	-56(%rbp), %rax
	movq	16(%rax), %rdx
	movq	-56(%rbp), %rax
	movq	8(%rax), %rax
	subq	%rax, %rdx
	movq	%rdx, %rax
	sarq	$5, %rax
	movq	%rax, -40(%rbp)
	movq	-56(%rbp), %rax
	movq	%rax, %rdi
	call	_ZNKSt6vectorINSt7__cxx1112basic_stringIcSt11char_traitsIcESaIcEEESaIS5_EE8max_sizeEv
	cmpq	%rax, -48(%rbp)
	ja	.L119
	movq	-56(%rbp), %rax
	movq	%rax, %rdi
	call	_ZNKSt6vectorINSt7__cxx1112basic_stringIcSt11char_traitsIcESaIcEEESaIS5_EE8max_sizeEv
	subq	-48(%rbp), %rax
	cmpq	%rax, -40(%rbp)
	jbe	.L120
.L119:
	movl	$1, %eax
	jmp	.L121
.L120:
	movl	$0, %eax
.L121:
	testb	%al, %al
	movq	-40(%rbp), %rax
	cmpq	-64(%rbp), %rax
	jb	.L123
	movq	-56(%rbp), %rax
	movq	%rax, %rdi
	call	_ZNSt12_Vector_baseINSt7__cxx1112basic_stringIcSt11char_traitsIcESaIcEEESaIS5_EE19_M_get_Tp_allocatorEv
	movq	%rax, %rdx
	movq	-56(%rbp), %rax
	movq	8(%rax), %rax
	movq	-64(%rbp), %rcx
	movq	%rcx, %rsi
	movq	%rax, %rdi
.LEHB13:
	call	_ZSt27__uninitialized_default_n_aIPNSt7__cxx1112basic_stringIcSt11char_traitsIcESaIcEEEmS5_ET_S7_T0_RSaIT1_E
	movq	-56(%rbp), %rdx
	movq	%rax, 8(%rdx)
	jmp	.L128
.L123:
	movq	-64(%rbp), %rcx
	movq	-56(%rbp), %rax
	leaq	.LC2(%rip), %rdx
	movq	%rcx, %rsi
	movq	%rax, %rdi
	call	_ZNKSt6vectorINSt7__cxx1112basic_stringIcSt11char_traitsIcESaIcEEESaIS5_EE12_M_check_lenEmPKc
	movq	%rax, -32(%rbp)
	movq	-56(%rbp), %rax
	movq	-32(%rbp), %rdx
	movq	%rdx, %rsi
	movq	%rax, %rdi
	call	_ZNSt12_Vector_baseINSt7__cxx1112basic_stringIcSt11char_traitsIcESaIcEEESaIS5_EE11_M_allocateEm
.LEHE13:
	movq	%rax, -24(%rbp)
	movq	-56(%rbp), %rax
	movq	%rax, %rdi
	call	_ZNSt12_Vector_baseINSt7__cxx1112basic_stringIcSt11char_traitsIcESaIcEEESaIS5_EE19_M_get_Tp_allocatorEv
	movq	%rax, %rdx
	movq	-48(%rbp), %rax
	salq	$5, %rax
	movq	%rax, %rcx
	movq	-24(%rbp), %rax
	addq	%rax, %rcx
	movq	-64(%rbp), %rax
	movq	%rax, %rsi
	movq	%rcx, %rdi
.LEHB14:
	call	_ZSt27__uninitialized_default_n_aIPNSt7__cxx1112basic_stringIcSt11char_traitsIcESaIcEEEmS5_ET_S7_T0_RSaIT1_E
.LEHE14:
	movq	-56(%rbp), %rax
	movq	%rax, %rdi
	call	_ZNSt12_Vector_baseINSt7__cxx1112basic_stringIcSt11char_traitsIcESaIcEEESaIS5_EE19_M_get_Tp_allocatorEv
	movq	%rax, %rcx
	movq	-56(%rbp), %rax
	movq	8(%rax), %rsi
	movq	-56(%rbp), %rax
	movq	(%rax), %rax
	movq	-24(%rbp), %rdx
	movq	%rax, %rdi
	call	_ZNSt6vectorINSt7__cxx1112basic_stringIcSt11char_traitsIcESaIcEEESaIS5_EE11_S_relocateEPS5_S8_S8_RS6_
	movq	-56(%rbp), %rax
	movq	-56(%rbp), %rdx
	movq	16(%rdx), %rcx
	movq	-56(%rbp), %rdx
	movq	(%rdx), %rdx
	subq	%rdx, %rcx
	movq	%rcx, %rdx
	sarq	$5, %rdx
	movq	%rdx, %rsi
	movq	-56(%rbp), %rdx
	movq	(%rdx), %rcx
	movq	%rsi, %rdx
	movq	%rcx, %rsi
	movq	%rax, %rdi
.LEHB15:
	call	_ZNSt12_Vector_baseINSt7__cxx1112basic_stringIcSt11char_traitsIcESaIcEEESaIS5_EE13_M_deallocateEPS5_m
.LEHE15:
	movq	-56(%rbp), %rax
	movq	-24(%rbp), %rdx
	movq	%rdx, (%rax)
	movq	-48(%rbp), %rdx
	movq	-64(%rbp), %rax
	addq	%rdx, %rax
	salq	$5, %rax
	movq	%rax, %rdx
	movq	-24(%rbp), %rax
	addq	%rax, %rdx
	movq	-56(%rbp), %rax
	movq	%rdx, 8(%rax)
	movq	-32(%rbp), %rax
	salq	$5, %rax
	movq	%rax, %rdx
	movq	-24(%rbp), %rax
	addq	%rax, %rdx
	movq	-56(%rbp), %rax
	movq	%rdx, 16(%rax)
	jmp	.L128
.L126:
	movq	%rax, %rdi
	call	__cxa_begin_catch@PLT
	movq	-56(%rbp), %rax
	movq	-32(%rbp), %rdx
	movq	-24(%rbp), %rcx
	movq	%rcx, %rsi
	movq	%rax, %rdi
.LEHB16:
	call	_ZNSt12_Vector_baseINSt7__cxx1112basic_stringIcSt11char_traitsIcESaIcEEESaIS5_EE13_M_deallocateEPS5_m
	call	__cxa_rethrow@PLT
.LEHE16:
.L127:
	movq	%rax, %rbx
	call	__cxa_end_catch@PLT
	movq	%rbx, %rax
	movq	%rax, %rdi
.LEHB17:
	call	_Unwind_Resume@PLT
.LEHE17:
.L128:
	nop
	addq	$56, %rsp
	popq	%rbx
	popq	%rbp
	.cfi_def_cfa 7, 8
	ret
	.cfi_endproc
.LFE3632:
	.section	.gcc_except_table
	.align 4
.LLSDA3632:
	.byte	0xff
	.byte	0x9b
	.uleb128 .LLSDATT3632-.LLSDATTD3632
.LLSDATTD3632:
	.byte	0x1
	.uleb128 .LLSDACSE3632-.LLSDACSB3632
.LLSDACSB3632:
	.uleb128 .LEHB13-.LFB3632
	.uleb128 .LEHE13-.LEHB13
	.uleb128 0
	.uleb128 0
	.uleb128 .LEHB14-.LFB3632
	.uleb128 .LEHE14-.LEHB14
	.uleb128 .L126-.LFB3632
	.uleb128 0x1
	.uleb128 .LEHB15-.LFB3632
	.uleb128 .LEHE15-.LEHB15
	.uleb128 0
	.uleb128 0
	.uleb128 .LEHB16-.LFB3632
	.uleb128 .LEHE16-.LEHB16
	.uleb128 .L127-.LFB3632
	.uleb128 0
	.uleb128 .LEHB17-.LFB3632
	.uleb128 .LEHE17-.LEHB17
	.uleb128 0
	.uleb128 0
.LLSDACSE3632:
	.byte	0x1
	.byte	0
	.align 4
	.long	0

.LLSDATT3632:
	.section	.text._ZNSt6vectorINSt7__cxx1112basic_stringIcSt11char_traitsIcESaIcEEESaIS5_EE17_M_default_appendEm,"axG",@progbits,_ZNSt6vectorINSt7__cxx1112basic_stringIcSt11char_traitsIcESaIcEEESaIS5_EE17_M_default_appendEm,comdat
	.size	_ZNSt6vectorINSt7__cxx1112basic_stringIcSt11char_traitsIcESaIcEEESaIS5_EE17_M_default_appendEm, .-_ZNSt6vectorINSt7__cxx1112basic_stringIcSt11char_traitsIcESaIcEEESaIS5_EE17_M_default_appendEm
	.section	.text._ZNSt6vectorINSt7__cxx1112basic_stringIcSt11char_traitsIcESaIcEEESaIS5_EE15_M_erase_at_endEPS5_,"axG",@progbits,_ZNSt6vectorINSt7__cxx1112basic_stringIcSt11char_traitsIcESaIcEEESaIS5_EE15_M_erase_at_endEPS5_,comdat
	.align 2
	.weak	_ZNSt6vectorINSt7__cxx1112basic_stringIcSt11char_traitsIcESaIcEEESaIS5_EE15_M_erase_at_endEPS5_
	.type	_ZNSt6vectorINSt7__cxx1112basic_stringIcSt11char_traitsIcESaIcEEESaIS5_EE15_M_erase_at_endEPS5_, @function
_ZNSt6vectorINSt7__cxx1112basic_stringIcSt11char_traitsIcESaIcEEESaIS5_EE15_M_erase_at_endEPS5_:
.LFB3635:
	.cfi_startproc
	.cfi_personality 0x9b,DW.ref.__gxx_personality_v0
	.cfi_lsda 0x1b,.LLSDA3635
	pushq	%rbp
	.cfi_def_cfa_offset 16
	.cfi_offset 6, -16
	movq	%rsp, %rbp
	.cfi_def_cfa_register 6
	subq	$32, %rsp
	movq	%rdi, -24(%rbp)
	movq	%rsi, -32(%rbp)
	movq	-24(%rbp), %rax
	movq	8(%rax), %rax
	subq	-32(%rbp), %rax
	sarq	$5, %rax
	movq	%rax, -8(%rbp)
	cmpq	$0, -8(%rbp)
	je	.L131
	movq	-24(%rbp), %rax
	movq	%rax, %rdi
	call	_ZNSt12_Vector_baseINSt7__cxx1112basic_stringIcSt11char_traitsIcESaIcEEESaIS5_EE19_M_get_Tp_allocatorEv
	movq	%rax, %rdx
	movq	-24(%rbp), %rax
	movq	8(%rax), %rcx
	movq	-32(%rbp), %rax
	movq	%rcx, %rsi
	movq	%rax, %rdi
	call	_ZSt8_DestroyIPNSt7__cxx1112basic_stringIcSt11char_traitsIcESaIcEEES5_EvT_S7_RSaIT0_E
	movq	-24(%rbp), %rax
	movq	-32(%rbp), %rdx
	movq	%rdx, 8(%rax)
.L131:
	nop
	leave
	.cfi_def_cfa 7, 8
	ret
	.cfi_endproc
.LFE3635:
	.section	.gcc_except_table
.LLSDA3635:
	.byte	0xff
	.byte	0xff
	.byte	0x1
	.uleb128 .LLSDACSE3635-.LLSDACSB3635
.LLSDACSB3635:
.LLSDACSE3635:
	.section	.text._ZNSt6vectorINSt7__cxx1112basic_stringIcSt11char_traitsIcESaIcEEESaIS5_EE15_M_erase_at_endEPS5_,"axG",@progbits,_ZNSt6vectorINSt7__cxx1112basic_stringIcSt11char_traitsIcESaIcEEESaIS5_EE15_M_erase_at_endEPS5_,comdat
	.size	_ZNSt6vectorINSt7__cxx1112basic_stringIcSt11char_traitsIcESaIcEEESaIS5_EE15_M_erase_at_endEPS5_, .-_ZNSt6vectorINSt7__cxx1112basic_stringIcSt11char_traitsIcESaIcEEESaIS5_EE15_M_erase_at_endEPS5_
	.section	.text._ZNSt7__cxx1112basic_stringIcSt11char_traitsIcESaIcEE12_M_constructIPcEEvT_S7_,"axG",@progbits,_ZNSt7__cxx1112basic_stringIcSt11char_traitsIcESaIcEE12_M_constructIPcEEvT_S7_,comdat
	.align 2
	.weak	_ZNSt7__cxx1112basic_stringIcSt11char_traitsIcESaIcEE12_M_constructIPcEEvT_S7_
	.type	_ZNSt7__cxx1112basic_stringIcSt11char_traitsIcESaIcEE12_M_constructIPcEEvT_S7_, @function
_ZNSt7__cxx1112basic_stringIcSt11char_traitsIcESaIcEE12_M_constructIPcEEvT_S7_:
.LFB3654:
	.cfi_startproc
	pushq	%rbp
	.cfi_def_cfa_offset 16
	.cfi_offset 6, -16
	movq	%rsp, %rbp
	.cfi_def_cfa_register 6
	subq	$32, %rsp
	movq	%rdi, -8(%rbp)
	movq	%rsi, -16(%rbp)
	movq	%rdx, -24(%rbp)
	movq	-24(%rbp), %rdx
	movq	-16(%rbp), %rcx
	movq	-8(%rbp), %rax
	movq	%rcx, %rsi
	movq	%rax, %rdi
	call	_ZNSt7__cxx1112basic_stringIcSt11char_traitsIcESaIcEE16_M_construct_auxIPcEEvT_S7_St12__false_type
	nop
	leave
	.cfi_def_cfa 7, 8
	ret
	.cfi_endproc
.LFE3654:
	.size	_ZNSt7__cxx1112basic_stringIcSt11char_traitsIcESaIcEE12_M_constructIPcEEvT_S7_, .-_ZNSt7__cxx1112basic_stringIcSt11char_traitsIcESaIcEE12_M_constructIPcEEvT_S7_
	.section	.text._ZN7HashMapINSt7__cxx1112basic_stringIcSt11char_traitsIcESaIcEEEiSt4hashIS5_EE13GetLoadFactorEv,"axG",@progbits,_ZN7HashMapINSt7__cxx1112basic_stringIcSt11char_traitsIcESaIcEEEiSt4hashIS5_EE13GetLoadFactorEv,comdat
	.align 2
	.weak	_ZN7HashMapINSt7__cxx1112basic_stringIcSt11char_traitsIcESaIcEEEiSt4hashIS5_EE13GetLoadFactorEv
	.type	_ZN7HashMapINSt7__cxx1112basic_stringIcSt11char_traitsIcESaIcEEEiSt4hashIS5_EE13GetLoadFactorEv, @function
_ZN7HashMapINSt7__cxx1112basic_stringIcSt11char_traitsIcESaIcEEEiSt4hashIS5_EE13GetLoadFactorEv:
.LFB3655:
	.cfi_startproc
	pushq	%rbp
	.cfi_def_cfa_offset 16
	.cfi_offset 6, -16
	movq	%rsp, %rbp
	.cfi_def_cfa_register 6
	movq	%rdi, -8(%rbp)
	movq	-8(%rbp), %rax
	movq	(%rax), %rax
	testq	%rax, %rax
	js	.L134
	cvtsi2sdq	%rax, %xmm0
	jmp	.L135
.L134:
	movq	%rax, %rdx
	shrq	%rdx
	andl	$1, %eax
	orq	%rax, %rdx
	cvtsi2sdq	%rdx, %xmm0
	addsd	%xmm0, %xmm0
.L135:
	movq	-8(%rbp), %rax
	movq	8(%rax), %rax
	testq	%rax, %rax
	js	.L136
	cvtsi2sdq	%rax, %xmm1
	jmp	.L137
.L136:
	movq	%rax, %rdx
	shrq	%rdx
	andl	$1, %eax
	orq	%rax, %rdx
	cvtsi2sdq	%rdx, %xmm1
	addsd	%xmm1, %xmm1
.L137:
	divsd	%xmm1, %xmm0
	popq	%rbp
	.cfi_def_cfa 7, 8
	ret
	.cfi_endproc
.LFE3655:
	.size	_ZN7HashMapINSt7__cxx1112basic_stringIcSt11char_traitsIcESaIcEEEiSt4hashIS5_EE13GetLoadFactorEv, .-_ZN7HashMapINSt7__cxx1112basic_stringIcSt11char_traitsIcESaIcEEEiSt4hashIS5_EE13GetLoadFactorEv
	.section	.text._ZNSt12_Vector_baseIN7HashMapINSt7__cxx1112basic_stringIcSt11char_traitsIcESaIcEEEiSt4hashIS6_EE7ElementESaISA_EEC2EOSC_,"axG",@progbits,_ZNSt12_Vector_baseIN7HashMapINSt7__cxx1112basic_stringIcSt11char_traitsIcESaIcEEEiSt4hashIS6_EE7ElementESaISA_EEC5EOSC_,comdat
	.align 2
	.weak	_ZNSt12_Vector_baseIN7HashMapINSt7__cxx1112basic_stringIcSt11char_traitsIcESaIcEEEiSt4hashIS6_EE7ElementESaISA_EEC2EOSC_
	.type	_ZNSt12_Vector_baseIN7HashMapINSt7__cxx1112basic_stringIcSt11char_traitsIcESaIcEEEiSt4hashIS6_EE7ElementESaISA_EEC2EOSC_, @function
_ZNSt12_Vector_baseIN7HashMapINSt7__cxx1112basic_stringIcSt11char_traitsIcESaIcEEEiSt4hashIS6_EE7ElementESaISA_EEC2EOSC_:
.LFB3659:
	.cfi_startproc
	pushq	%rbp
	.cfi_def_cfa_offset 16
	.cfi_offset 6, -16
	movq	%rsp, %rbp
	.cfi_def_cfa_register 6
	subq	$16, %rsp
	movq	%rdi, -8(%rbp)
	movq	%rsi, -16(%rbp)
	movq	-8(%rbp), %rax
	movq	-16(%rbp), %rdx
	movq	%rdx, %rsi
	movq	%rax, %rdi
	call	_ZNSt12_Vector_baseIN7HashMapINSt7__cxx1112basic_stringIcSt11char_traitsIcESaIcEEEiSt4hashIS6_EE7ElementESaISA_EE12_Vector_implC1EOSD_
	nop
	leave
	.cfi_def_cfa 7, 8
	ret
	.cfi_endproc
.LFE3659:
	.size	_ZNSt12_Vector_baseIN7HashMapINSt7__cxx1112basic_stringIcSt11char_traitsIcESaIcEEEiSt4hashIS6_EE7ElementESaISA_EEC2EOSC_, .-_ZNSt12_Vector_baseIN7HashMapINSt7__cxx1112basic_stringIcSt11char_traitsIcESaIcEEEiSt4hashIS6_EE7ElementESaISA_EEC2EOSC_
	.weak	_ZNSt12_Vector_baseIN7HashMapINSt7__cxx1112basic_stringIcSt11char_traitsIcESaIcEEEiSt4hashIS6_EE7ElementESaISA_EEC1EOSC_
	.set	_ZNSt12_Vector_baseIN7HashMapINSt7__cxx1112basic_stringIcSt11char_traitsIcESaIcEEEiSt4hashIS6_EE7ElementESaISA_EEC1EOSC_,_ZNSt12_Vector_baseIN7HashMapINSt7__cxx1112basic_stringIcSt11char_traitsIcESaIcEEEiSt4hashIS6_EE7ElementESaISA_EEC2EOSC_
	.section	.text._ZNSt6vectorIN7HashMapINSt7__cxx1112basic_stringIcSt11char_traitsIcESaIcEEEiSt4hashIS6_EE7ElementESaISA_EEC2EOSC_,"axG",@progbits,_ZNSt6vectorIN7HashMapINSt7__cxx1112basic_stringIcSt11char_traitsIcESaIcEEEiSt4hashIS6_EE7ElementESaISA_EEC5EOSC_,comdat
	.align 2
	.weak	_ZNSt6vectorIN7HashMapINSt7__cxx1112basic_stringIcSt11char_traitsIcESaIcEEEiSt4hashIS6_EE7ElementESaISA_EEC2EOSC_
	.type	_ZNSt6vectorIN7HashMapINSt7__cxx1112basic_stringIcSt11char_traitsIcESaIcEEEiSt4hashIS6_EE7ElementESaISA_EEC2EOSC_, @function
_ZNSt6vectorIN7HashMapINSt7__cxx1112basic_stringIcSt11char_traitsIcESaIcEEEiSt4hashIS6_EE7ElementESaISA_EEC2EOSC_:
.LFB3661:
	.cfi_startproc
	pushq	%rbp
	.cfi_def_cfa_offset 16
	.cfi_offset 6, -16
	movq	%rsp, %rbp
	.cfi_def_cfa_register 6
	subq	$16, %rsp
	movq	%rdi, -8(%rbp)
	movq	%rsi, -16(%rbp)
	movq	-8(%rbp), %rax
	movq	-16(%rbp), %rdx
	movq	%rdx, %rsi
	movq	%rax, %rdi
	call	_ZNSt12_Vector_baseIN7HashMapINSt7__cxx1112basic_stringIcSt11char_traitsIcESaIcEEEiSt4hashIS6_EE7ElementESaISA_EEC2EOSC_
	nop
	leave
	.cfi_def_cfa 7, 8
	ret
	.cfi_endproc
.LFE3661:
	.size	_ZNSt6vectorIN7HashMapINSt7__cxx1112basic_stringIcSt11char_traitsIcESaIcEEEiSt4hashIS6_EE7ElementESaISA_EEC2EOSC_, .-_ZNSt6vectorIN7HashMapINSt7__cxx1112basic_stringIcSt11char_traitsIcESaIcEEEiSt4hashIS6_EE7ElementESaISA_EEC2EOSC_
	.weak	_ZNSt6vectorIN7HashMapINSt7__cxx1112basic_stringIcSt11char_traitsIcESaIcEEEiSt4hashIS6_EE7ElementESaISA_EEC1EOSC_
	.set	_ZNSt6vectorIN7HashMapINSt7__cxx1112basic_stringIcSt11char_traitsIcESaIcEEEiSt4hashIS6_EE7ElementESaISA_EEC1EOSC_,_ZNSt6vectorIN7HashMapINSt7__cxx1112basic_stringIcSt11char_traitsIcESaIcEEEiSt4hashIS6_EE7ElementESaISA_EEC2EOSC_
	.section	.text._ZN7HashMapINSt7__cxx1112basic_stringIcSt11char_traitsIcESaIcEEEiSt4hashIS5_EE6RehashEm,"axG",@progbits,_ZN7HashMapINSt7__cxx1112basic_stringIcSt11char_traitsIcESaIcEEEiSt4hashIS5_EE6RehashEm,comdat
	.align 2
	.weak	_ZN7HashMapINSt7__cxx1112basic_stringIcSt11char_traitsIcESaIcEEEiSt4hashIS5_EE6RehashEm
	.type	_ZN7HashMapINSt7__cxx1112basic_stringIcSt11char_traitsIcESaIcEEEiSt4hashIS5_EE6RehashEm, @function
_ZN7HashMapINSt7__cxx1112basic_stringIcSt11char_traitsIcESaIcEEEiSt4hashIS5_EE6RehashEm:
.LFB3656:
	.cfi_startproc
	.cfi_personality 0x9b,DW.ref.__gxx_personality_v0
	.cfi_lsda 0x1b,.LLSDA3656
	pushq	%rbp
	.cfi_def_cfa_offset 16
	.cfi_offset 6, -16
	movq	%rsp, %rbp
	.cfi_def_cfa_register 6
	pushq	%rbx
	subq	$136, %rsp
	.cfi_offset 3, -24
	movq	%rdi, -136(%rbp)
	movq	%rsi, -144(%rbp)
	movq	%fs:40, %rax
	movq	%rax, -24(%rbp)
	xorl	%eax, %eax
	movq	-136(%rbp), %rax
	movq	-144(%rbp), %rdx
	movq	%rdx, 8(%rax)
	movq	-136(%rbp), %rax
	addq	$16, %rax
	movq	%rax, %rdi
	call	_ZSt4moveIRSt6vectorIN7HashMapINSt7__cxx1112basic_stringIcSt11char_traitsIcESaIcEEEiSt4hashIS7_EE7ElementESaISB_EEEONSt16remove_referenceIT_E4typeEOSG_
	movq	%rax, %rdx
	leaq	-96(%rbp), %rax
	movq	%rdx, %rsi
	movq	%rax, %rdi
	call	_ZNSt6vectorIN7HashMapINSt7__cxx1112basic_stringIcSt11char_traitsIcESaIcEEEiSt4hashIS6_EE7ElementESaISA_EEC1EOSC_
	movq	-136(%rbp), %rax
	leaq	16(%rax), %rdx
	movq	-144(%rbp), %rax
	movq	%rax, %rsi
	movq	%rdx, %rdi
.LEHB18:
	call	_ZNSt6vectorIN7HashMapINSt7__cxx1112basic_stringIcSt11char_traitsIcESaIcEEEiSt4hashIS6_EE7ElementESaISA_EE6resizeEm
	leaq	-96(%rbp), %rax
	movq	%rax, -112(%rbp)
	movq	-112(%rbp), %rax
	movq	%rax, %rdi
	call	_ZNSt6vectorIN7HashMapINSt7__cxx1112basic_stringIcSt11char_traitsIcESaIcEEEiSt4hashIS6_EE7ElementESaISA_EE5beginEv
	movq	%rax, -128(%rbp)
	movq	-112(%rbp), %rax
	movq	%rax, %rdi
	call	_ZNSt6vectorIN7HashMapINSt7__cxx1112basic_stringIcSt11char_traitsIcESaIcEEEiSt4hashIS6_EE7ElementESaISA_EE3endEv
	movq	%rax, -120(%rbp)
.L144:
	leaq	-120(%rbp), %rdx
	leaq	-128(%rbp), %rax
	movq	%rdx, %rsi
	movq	%rax, %rdi
	call	_ZN9__gnu_cxxneIPN7HashMapINSt7__cxx1112basic_stringIcSt11char_traitsIcESaIcEEEiSt4hashIS7_EE7ElementESt6vectorISB_SaISB_EEEEbRKNS_17__normal_iteratorIT_T0_EESL_
	testb	%al, %al
	je	.L142
	leaq	-128(%rbp), %rax
	movq	%rax, %rdi
	call	_ZNK9__gnu_cxx17__normal_iteratorIPN7HashMapINSt7__cxx1112basic_stringIcSt11char_traitsIcESaIcEEEiSt4hashIS7_EE7ElementESt6vectorISB_SaISB_EEEdeEv
	movq	%rax, -104(%rbp)
	movq	-104(%rbp), %rax
	movq	%rax, %rdi
	call	_ZNK7HashMapINSt7__cxx1112basic_stringIcSt11char_traitsIcESaIcEEEiSt4hashIS5_EE7Element5EmptyEv
	xorl	$1, %eax
	testb	%al, %al
	je	.L143
	movq	-104(%rbp), %rax
	movl	32(%rax), %ebx
	movq	-104(%rbp), %rdx
	leaq	-64(%rbp), %rax
	movq	%rdx, %rsi
	movq	%rax, %rdi
	call	_ZNSt7__cxx1112basic_stringIcSt11char_traitsIcESaIcEEC1ERKS4_@PLT
.LEHE18:
	leaq	-64(%rbp), %rcx
	movq	-136(%rbp), %rax
	movl	%ebx, %edx
	movq	%rcx, %rsi
	movq	%rax, %rdi
.LEHB19:
	call	_ZN7HashMapINSt7__cxx1112basic_stringIcSt11char_traitsIcESaIcEEEiSt4hashIS5_EE6InsertES5_i
.LEHE19:
	movl	%eax, %ecx
	movq	%rdx, %rax
	movq	%rax, %rbx
	leaq	-64(%rbp), %rax
	movq	%rax, %rdi
	call	_ZNSt7__cxx1112basic_stringIcSt11char_traitsIcESaIcEED1Ev@PLT
.L143:
	leaq	-128(%rbp), %rax
	movq	%rax, %rdi
	call	_ZN9__gnu_cxx17__normal_iteratorIPN7HashMapINSt7__cxx1112basic_stringIcSt11char_traitsIcESaIcEEEiSt4hashIS7_EE7ElementESt6vectorISB_SaISB_EEEppEv
	jmp	.L144
.L142:
	leaq	-96(%rbp), %rax
	movq	%rax, %rdi
	call	_ZNSt6vectorIN7HashMapINSt7__cxx1112basic_stringIcSt11char_traitsIcESaIcEEEiSt4hashIS6_EE7ElementESaISA_EED1Ev
	nop
	movq	-24(%rbp), %rax
	xorq	%fs:40, %rax
	je	.L147
	jmp	.L150
.L149:
	movq	%rax, %rbx
	leaq	-64(%rbp), %rax
	movq	%rax, %rdi
	call	_ZNSt7__cxx1112basic_stringIcSt11char_traitsIcESaIcEED1Ev@PLT
	jmp	.L146
.L148:
	movq	%rax, %rbx
.L146:
	leaq	-96(%rbp), %rax
	movq	%rax, %rdi
	call	_ZNSt6vectorIN7HashMapINSt7__cxx1112basic_stringIcSt11char_traitsIcESaIcEEEiSt4hashIS6_EE7ElementESaISA_EED1Ev
	movq	%rbx, %rax
	movq	%rax, %rdi
.LEHB20:
	call	_Unwind_Resume@PLT
.LEHE20:
.L150:
	call	__stack_chk_fail@PLT
.L147:
	addq	$136, %rsp
	popq	%rbx
	popq	%rbp
	.cfi_def_cfa 7, 8
	ret
	.cfi_endproc
.LFE3656:
	.section	.gcc_except_table
.LLSDA3656:
	.byte	0xff
	.byte	0xff
	.byte	0x1
	.uleb128 .LLSDACSE3656-.LLSDACSB3656
.LLSDACSB3656:
	.uleb128 .LEHB18-.LFB3656
	.uleb128 .LEHE18-.LEHB18
	.uleb128 .L148-.LFB3656
	.uleb128 0
	.uleb128 .LEHB19-.LFB3656
	.uleb128 .LEHE19-.LEHB19
	.uleb128 .L149-.LFB3656
	.uleb128 0
	.uleb128 .LEHB20-.LFB3656
	.uleb128 .LEHE20-.LEHB20
	.uleb128 0
	.uleb128 0
.LLSDACSE3656:
	.section	.text._ZN7HashMapINSt7__cxx1112basic_stringIcSt11char_traitsIcESaIcEEEiSt4hashIS5_EE6RehashEm,"axG",@progbits,_ZN7HashMapINSt7__cxx1112basic_stringIcSt11char_traitsIcESaIcEEEiSt4hashIS5_EE6RehashEm,comdat
	.size	_ZN7HashMapINSt7__cxx1112basic_stringIcSt11char_traitsIcESaIcEEEiSt4hashIS5_EE6RehashEm, .-_ZN7HashMapINSt7__cxx1112basic_stringIcSt11char_traitsIcESaIcEEEiSt4hashIS5_EE6RehashEm
	.section	.text._ZN7HashMapINSt7__cxx1112basic_stringIcSt11char_traitsIcESaIcEEEiSt4hashIS5_EE7IsValidENS8_13OperationTypeEm,"axG",@progbits,_ZN7HashMapINSt7__cxx1112basic_stringIcSt11char_traitsIcESaIcEEEiSt4hashIS5_EE7IsValidENS8_13OperationTypeEm,comdat
	.align 2
	.weak	_ZN7HashMapINSt7__cxx1112basic_stringIcSt11char_traitsIcESaIcEEEiSt4hashIS5_EE7IsValidENS8_13OperationTypeEm
	.type	_ZN7HashMapINSt7__cxx1112basic_stringIcSt11char_traitsIcESaIcEEEiSt4hashIS5_EE7IsValidENS8_13OperationTypeEm, @function
_ZN7HashMapINSt7__cxx1112basic_stringIcSt11char_traitsIcESaIcEEEiSt4hashIS5_EE7IsValidENS8_13OperationTypeEm:
.LFB3663:
	.cfi_startproc
	pushq	%rbp
	.cfi_def_cfa_offset 16
	.cfi_offset 6, -16
	movq	%rsp, %rbp
	.cfi_def_cfa_register 6
	subq	$32, %rsp
	movq	%rdi, -8(%rbp)
	movl	%esi, -12(%rbp)
	movq	%rdx, -24(%rbp)
	cmpl	$2, -12(%rbp)
	je	.L152
	cmpl	$2, -12(%rbp)
	jg	.L153
	cmpl	$0, -12(%rbp)
	je	.L152
	cmpl	$1, -12(%rbp)
	je	.L154
	jmp	.L153
.L152:
	movq	-8(%rbp), %rax
	leaq	16(%rax), %rdx
	movq	-24(%rbp), %rax
	movq	%rax, %rsi
	movq	%rdx, %rdi
	call	_ZNSt6vectorIN7HashMapINSt7__cxx1112basic_stringIcSt11char_traitsIcESaIcEEEiSt4hashIS6_EE7ElementESaISA_EEixEm
	movq	%rax, %rdi
	call	_ZNK7HashMapINSt7__cxx1112basic_stringIcSt11char_traitsIcESaIcEEEiSt4hashIS5_EE7Element5EmptyEv
	testb	%al, %al
	je	.L155
	movq	-8(%rbp), %rax
	leaq	16(%rax), %rdx
	movq	-24(%rbp), %rax
	movq	%rax, %rsi
	movq	%rdx, %rdi
	call	_ZNSt6vectorIN7HashMapINSt7__cxx1112basic_stringIcSt11char_traitsIcESaIcEEEiSt4hashIS6_EE7ElementESaISA_EEixEm
	movq	%rax, %rdi
	call	_ZNK7HashMapINSt7__cxx1112basic_stringIcSt11char_traitsIcESaIcEEEiSt4hashIS5_EE7Element7DeletedEv
	xorl	$1, %eax
	testb	%al, %al
	je	.L155
	movl	$1, %eax
	jmp	.L156
.L155:
	movl	$0, %eax
.L156:
	testb	%al, %al
	je	.L157
	movl	$0, %eax
	jmp	.L151
.L157:
	movl	$1, %eax
	jmp	.L151
.L154:
	movq	-8(%rbp), %rax
	leaq	16(%rax), %rdx
	movq	-24(%rbp), %rax
	movq	%rax, %rsi
	movq	%rdx, %rdi
	call	_ZNSt6vectorIN7HashMapINSt7__cxx1112basic_stringIcSt11char_traitsIcESaIcEEEiSt4hashIS6_EE7ElementESaISA_EEixEm
	movq	%rax, %rdi
	call	_ZNK7HashMapINSt7__cxx1112basic_stringIcSt11char_traitsIcESaIcEEEiSt4hashIS5_EE7Element5EmptyEv
	testb	%al, %al
	jne	.L159
	movq	-8(%rbp), %rax
	leaq	16(%rax), %rdx
	movq	-24(%rbp), %rax
	movq	%rax, %rsi
	movq	%rdx, %rdi
	call	_ZNSt6vectorIN7HashMapINSt7__cxx1112basic_stringIcSt11char_traitsIcESaIcEEEiSt4hashIS6_EE7ElementESaISA_EEixEm
	movq	%rax, %rdi
	call	_ZNK7HashMapINSt7__cxx1112basic_stringIcSt11char_traitsIcESaIcEEEiSt4hashIS5_EE7Element7DeletedEv
	testb	%al, %al
	je	.L160
.L159:
	movl	$1, %eax
	jmp	.L161
.L160:
	movl	$0, %eax
.L161:
	testb	%al, %al
	je	.L162
	movl	$0, %eax
	jmp	.L151
.L162:
	movl	$1, %eax
	jmp	.L151
.L153:
.L151:
	leave
	.cfi_def_cfa 7, 8
	ret
	.cfi_endproc
.LFE3663:
	.size	_ZN7HashMapINSt7__cxx1112basic_stringIcSt11char_traitsIcESaIcEEEiSt4hashIS5_EE7IsValidENS8_13OperationTypeEm, .-_ZN7HashMapINSt7__cxx1112basic_stringIcSt11char_traitsIcESaIcEEEiSt4hashIS5_EE7IsValidENS8_13OperationTypeEm
	.section	.text._ZNSt6vectorIN7HashMapINSt7__cxx1112basic_stringIcSt11char_traitsIcESaIcEEEiSt4hashIS6_EE7ElementESaISA_EEixEm,"axG",@progbits,_ZNSt6vectorIN7HashMapINSt7__cxx1112basic_stringIcSt11char_traitsIcESaIcEEEiSt4hashIS6_EE7ElementESaISA_EEixEm,comdat
	.align 2
	.weak	_ZNSt6vectorIN7HashMapINSt7__cxx1112basic_stringIcSt11char_traitsIcESaIcEEEiSt4hashIS6_EE7ElementESaISA_EEixEm
	.type	_ZNSt6vectorIN7HashMapINSt7__cxx1112basic_stringIcSt11char_traitsIcESaIcEEEiSt4hashIS6_EE7ElementESaISA_EEixEm, @function
_ZNSt6vectorIN7HashMapINSt7__cxx1112basic_stringIcSt11char_traitsIcESaIcEEEiSt4hashIS6_EE7ElementESaISA_EEixEm:
.LFB3664:
	.cfi_startproc
	pushq	%rbp
	.cfi_def_cfa_offset 16
	.cfi_offset 6, -16
	movq	%rsp, %rbp
	.cfi_def_cfa_register 6
	movq	%rdi, -8(%rbp)
	movq	%rsi, -16(%rbp)
	movq	-8(%rbp), %rax
	movq	(%rax), %rcx
	movq	-16(%rbp), %rdx
	movq	%rdx, %rax
	salq	$2, %rax
	addq	%rdx, %rax
	salq	$3, %rax
	addq	%rcx, %rax
	popq	%rbp
	.cfi_def_cfa 7, 8
	ret
	.cfi_endproc
.LFE3664:
	.size	_ZNSt6vectorIN7HashMapINSt7__cxx1112basic_stringIcSt11char_traitsIcESaIcEEEiSt4hashIS6_EE7ElementESaISA_EEixEm, .-_ZNSt6vectorIN7HashMapINSt7__cxx1112basic_stringIcSt11char_traitsIcESaIcEEEiSt4hashIS6_EE7ElementESaISA_EEixEm
	.section	.text._ZSteqIcEN9__gnu_cxx11__enable_ifIXsrSt9__is_charIT_E7__valueEbE6__typeERKNSt7__cxx1112basic_stringIS3_St11char_traitsIS3_ESaIS3_EEESE_,"axG",@progbits,_ZSteqIcEN9__gnu_cxx11__enable_ifIXsrSt9__is_charIT_E7__valueEbE6__typeERKNSt7__cxx1112basic_stringIS3_St11char_traitsIS3_ESaIS3_EEESE_,comdat
	.weak	_ZSteqIcEN9__gnu_cxx11__enable_ifIXsrSt9__is_charIT_E7__valueEbE6__typeERKNSt7__cxx1112basic_stringIS3_St11char_traitsIS3_ESaIS3_EEESE_
	.type	_ZSteqIcEN9__gnu_cxx11__enable_ifIXsrSt9__is_charIT_E7__valueEbE6__typeERKNSt7__cxx1112basic_stringIS3_St11char_traitsIS3_ESaIS3_EEESE_, @function
_ZSteqIcEN9__gnu_cxx11__enable_ifIXsrSt9__is_charIT_E7__valueEbE6__typeERKNSt7__cxx1112basic_stringIS3_St11char_traitsIS3_ESaIS3_EEESE_:
.LFB3665:
	.cfi_startproc
	.cfi_personality 0x9b,DW.ref.__gxx_personality_v0
	.cfi_lsda 0x1b,.LLSDA3665
	pushq	%rbp
	.cfi_def_cfa_offset 16
	.cfi_offset 6, -16
	movq	%rsp, %rbp
	.cfi_def_cfa_register 6
	pushq	%r12
	pushq	%rbx
	subq	$16, %rsp
	.cfi_offset 12, -24
	.cfi_offset 3, -32
	movq	%rdi, -24(%rbp)
	movq	%rsi, -32(%rbp)
	movq	-24(%rbp), %rax
	movq	%rax, %rdi
	call	_ZNKSt7__cxx1112basic_stringIcSt11char_traitsIcESaIcEE4sizeEv@PLT
	movq	%rax, %rbx
	movq	-32(%rbp), %rax
	movq	%rax, %rdi
	call	_ZNKSt7__cxx1112basic_stringIcSt11char_traitsIcESaIcEE4sizeEv@PLT
	cmpq	%rax, %rbx
	jne	.L166
	movq	-24(%rbp), %rax
	movq	%rax, %rdi
	call	_ZNKSt7__cxx1112basic_stringIcSt11char_traitsIcESaIcEE4sizeEv@PLT
	movq	%rax, %r12
	movq	-32(%rbp), %rax
	movq	%rax, %rdi
	call	_ZNKSt7__cxx1112basic_stringIcSt11char_traitsIcESaIcEE4dataEv@PLT
	movq	%rax, %rbx
	movq	-24(%rbp), %rax
	movq	%rax, %rdi
	call	_ZNKSt7__cxx1112basic_stringIcSt11char_traitsIcESaIcEE4dataEv@PLT
	movq	%r12, %rdx
	movq	%rbx, %rsi
	movq	%rax, %rdi
	call	_ZNSt11char_traitsIcE7compareEPKcS2_m
	testl	%eax, %eax
	jne	.L166
	movl	$1, %eax
	jmp	.L167
.L166:
	movl	$0, %eax
.L167:
	addq	$16, %rsp
	popq	%rbx
	popq	%r12
	popq	%rbp
	.cfi_def_cfa 7, 8
	ret
	.cfi_endproc
.LFE3665:
	.section	.gcc_except_table
.LLSDA3665:
	.byte	0xff
	.byte	0xff
	.byte	0x1
	.uleb128 .LLSDACSE3665-.LLSDACSB3665
.LLSDACSB3665:
.LLSDACSE3665:
	.section	.text._ZSteqIcEN9__gnu_cxx11__enable_ifIXsrSt9__is_charIT_E7__valueEbE6__typeERKNSt7__cxx1112basic_stringIS3_St11char_traitsIS3_ESaIS3_EEESE_,"axG",@progbits,_ZSteqIcEN9__gnu_cxx11__enable_ifIXsrSt9__is_charIT_E7__valueEbE6__typeERKNSt7__cxx1112basic_stringIS3_St11char_traitsIS3_ESaIS3_EEESE_,comdat
	.size	_ZSteqIcEN9__gnu_cxx11__enable_ifIXsrSt9__is_charIT_E7__valueEbE6__typeERKNSt7__cxx1112basic_stringIS3_St11char_traitsIS3_ESaIS3_EEESE_, .-_ZSteqIcEN9__gnu_cxx11__enable_ifIXsrSt9__is_charIT_E7__valueEbE6__typeERKNSt7__cxx1112basic_stringIS3_St11char_traitsIS3_ESaIS3_EEESE_
	.section	.text._ZNSt10error_codeC2I9ErrorCodevEET_,"axG",@progbits,_ZNSt10error_codeC5I9ErrorCodevEET_,comdat
	.align 2
	.weak	_ZNSt10error_codeC2I9ErrorCodevEET_
	.type	_ZNSt10error_codeC2I9ErrorCodevEET_, @function
_ZNSt10error_codeC2I9ErrorCodevEET_:
.LFB3667:
	.cfi_startproc
	.cfi_personality 0x9b,DW.ref.__gxx_personality_v0
	.cfi_lsda 0x1b,.LLSDA3667
	pushq	%rbp
	.cfi_def_cfa_offset 16
	.cfi_offset 6, -16
	movq	%rsp, %rbp
	.cfi_def_cfa_register 6
	subq	$16, %rsp
	movq	%rdi, -8(%rbp)
	movl	%esi, -12(%rbp)
	movl	-12(%rbp), %eax
	movl	%eax, %edi
	call	_Z15make_error_code9ErrorCode@PLT
	movl	%eax, %ecx
	movq	-8(%rbp), %rax
	movl	%ecx, (%rax)
	movq	%rdx, 8(%rax)
	nop
	leave
	.cfi_def_cfa 7, 8
	ret
	.cfi_endproc
.LFE3667:
	.section	.gcc_except_table
.LLSDA3667:
	.byte	0xff
	.byte	0xff
	.byte	0x1
	.uleb128 .LLSDACSE3667-.LLSDACSB3667
.LLSDACSB3667:
.LLSDACSE3667:
	.section	.text._ZNSt10error_codeC2I9ErrorCodevEET_,"axG",@progbits,_ZNSt10error_codeC5I9ErrorCodevEET_,comdat
	.size	_ZNSt10error_codeC2I9ErrorCodevEET_, .-_ZNSt10error_codeC2I9ErrorCodevEET_
	.weak	_ZNSt10error_codeC1I9ErrorCodevEET_
	.set	_ZNSt10error_codeC1I9ErrorCodevEET_,_ZNSt10error_codeC2I9ErrorCodevEET_
	.section	.text._ZN7Failurecv5MaybeIT_EIvEEv,"axG",@progbits,_ZN7Failurecv5MaybeIT_EIvEEv,comdat
	.align 2
	.weak	_ZN7Failurecv5MaybeIT_EIvEEv
	.type	_ZN7Failurecv5MaybeIT_EIvEEv, @function
_ZN7Failurecv5MaybeIT_EIvEEv:
.LFB3669:
	.cfi_startproc
	pushq	%rbp
	.cfi_def_cfa_offset 16
	.cfi_offset 6, -16
	movq	%rsp, %rbp
	.cfi_def_cfa_register 6
	pushq	%rbx
	subq	$56, %rsp
	.cfi_offset 3, -24
	movq	%rdi, -56(%rbp)
	movq	%fs:40, %rax
	movq	%rax, -24(%rbp)
	xorl	%eax, %eax
	movq	-56(%rbp), %rax
	movl	(%rax), %ecx
	movq	8(%rax), %rdx
	leaq	-48(%rbp), %rax
	movl	%ecx, %esi
	movq	%rax, %rdi
	call	_ZN5MaybeIvEC1ESt10error_code
	movq	-48(%rbp), %rax
	movq	-40(%rbp), %rdx
	movq	%rax, %rcx
	movq	%rdx, %rbx
	movq	-24(%rbp), %rax
	xorq	%fs:40, %rax
	je	.L172
	call	__stack_chk_fail@PLT
.L172:
	movl	%ecx, %eax
	addq	$56, %rsp
	popq	%rbx
	popq	%rbp
	.cfi_def_cfa 7, 8
	ret
	.cfi_endproc
.LFE3669:
	.size	_ZN7Failurecv5MaybeIT_EIvEEv, .-_ZN7Failurecv5MaybeIT_EIvEEv
	.section	.text._ZN7HashMapINSt7__cxx1112basic_stringIcSt11char_traitsIcESaIcEEEiSt4hashIS5_EE15GetNextPositionEm,"axG",@progbits,_ZN7HashMapINSt7__cxx1112basic_stringIcSt11char_traitsIcESaIcEEEiSt4hashIS5_EE15GetNextPositionEm,comdat
	.align 2
	.weak	_ZN7HashMapINSt7__cxx1112basic_stringIcSt11char_traitsIcESaIcEEEiSt4hashIS5_EE15GetNextPositionEm
	.type	_ZN7HashMapINSt7__cxx1112basic_stringIcSt11char_traitsIcESaIcEEEiSt4hashIS5_EE15GetNextPositionEm, @function
_ZN7HashMapINSt7__cxx1112basic_stringIcSt11char_traitsIcESaIcEEEiSt4hashIS5_EE15GetNextPositionEm:
.LFB3670:
	.cfi_startproc
	pushq	%rbp
	.cfi_def_cfa_offset 16
	.cfi_offset 6, -16
	movq	%rsp, %rbp
	.cfi_def_cfa_register 6
	movq	%rdi, -8(%rbp)
	movq	%rsi, -16(%rbp)
	movq	-16(%rbp), %rax
	leaq	1(%rax), %rdx
	movq	-8(%rbp), %rax
	movq	8(%rax), %rcx
	movq	%rdx, %rax
	movl	$0, %edx
	divq	%rcx
	movq	%rdx, %rax
	popq	%rbp
	.cfi_def_cfa 7, 8
	ret
	.cfi_endproc
.LFE3670:
	.size	_ZN7HashMapINSt7__cxx1112basic_stringIcSt11char_traitsIcESaIcEEEiSt4hashIS5_EE15GetNextPositionEm, .-_ZN7HashMapINSt7__cxx1112basic_stringIcSt11char_traitsIcESaIcEEEiSt4hashIS5_EE15GetNextPositionEm
	.section	.text._ZN7HashMapINSt7__cxx1112basic_stringIcSt11char_traitsIcESaIcEEEiSt4hashIS5_EE7ElementC2ERKS5_RKi,"axG",@progbits,_ZN7HashMapINSt7__cxx1112basic_stringIcSt11char_traitsIcESaIcEEEiSt4hashIS5_EE7ElementC5ERKS5_RKi,comdat
	.align 2
	.weak	_ZN7HashMapINSt7__cxx1112basic_stringIcSt11char_traitsIcESaIcEEEiSt4hashIS5_EE7ElementC2ERKS5_RKi
	.type	_ZN7HashMapINSt7__cxx1112basic_stringIcSt11char_traitsIcESaIcEEEiSt4hashIS5_EE7ElementC2ERKS5_RKi, @function
_ZN7HashMapINSt7__cxx1112basic_stringIcSt11char_traitsIcESaIcEEEiSt4hashIS5_EE7ElementC2ERKS5_RKi:
.LFB3672:
	.cfi_startproc
	pushq	%rbp
	.cfi_def_cfa_offset 16
	.cfi_offset 6, -16
	movq	%rsp, %rbp
	.cfi_def_cfa_register 6
	subq	$32, %rsp
	movq	%rdi, -8(%rbp)
	movq	%rsi, -16(%rbp)
	movq	%rdx, -24(%rbp)
	movq	-8(%rbp), %rax
	movq	-16(%rbp), %rdx
	movq	%rdx, %rsi
	movq	%rax, %rdi
	call	_ZNSt7__cxx1112basic_stringIcSt11char_traitsIcESaIcEEC1ERKS4_@PLT
	movq	-24(%rbp), %rax
	movl	(%rax), %edx
	movq	-8(%rbp), %rax
	movl	%edx, 32(%rax)
	movq	-8(%rbp), %rax
	movb	$0, 36(%rax)
	movq	-8(%rbp), %rax
	movb	$0, 37(%rax)
	nop
	leave
	.cfi_def_cfa 7, 8
	ret
	.cfi_endproc
.LFE3672:
	.size	_ZN7HashMapINSt7__cxx1112basic_stringIcSt11char_traitsIcESaIcEEEiSt4hashIS5_EE7ElementC2ERKS5_RKi, .-_ZN7HashMapINSt7__cxx1112basic_stringIcSt11char_traitsIcESaIcEEEiSt4hashIS5_EE7ElementC2ERKS5_RKi
	.weak	_ZN7HashMapINSt7__cxx1112basic_stringIcSt11char_traitsIcESaIcEEEiSt4hashIS5_EE7ElementC1ERKS5_RKi
	.set	_ZN7HashMapINSt7__cxx1112basic_stringIcSt11char_traitsIcESaIcEEEiSt4hashIS5_EE7ElementC1ERKS5_RKi,_ZN7HashMapINSt7__cxx1112basic_stringIcSt11char_traitsIcESaIcEEEiSt4hashIS5_EE7ElementC2ERKS5_RKi
	.section	.text._ZNK7HashMapINSt7__cxx1112basic_stringIcSt11char_traitsIcESaIcEEEiSt4hashIS5_EE7Element7DeletedEv,"axG",@progbits,_ZNK7HashMapINSt7__cxx1112basic_stringIcSt11char_traitsIcESaIcEEEiSt4hashIS5_EE7Element7DeletedEv,comdat
	.align 2
	.weak	_ZNK7HashMapINSt7__cxx1112basic_stringIcSt11char_traitsIcESaIcEEEiSt4hashIS5_EE7Element7DeletedEv
	.type	_ZNK7HashMapINSt7__cxx1112basic_stringIcSt11char_traitsIcESaIcEEEiSt4hashIS5_EE7Element7DeletedEv, @function
_ZNK7HashMapINSt7__cxx1112basic_stringIcSt11char_traitsIcESaIcEEEiSt4hashIS5_EE7Element7DeletedEv:
.LFB3674:
	.cfi_startproc
	pushq	%rbp
	.cfi_def_cfa_offset 16
	.cfi_offset 6, -16
	movq	%rsp, %rbp
	.cfi_def_cfa_register 6
	movq	%rdi, -8(%rbp)
	movq	-8(%rbp), %rax
	movzbl	36(%rax), %eax
	popq	%rbp
	.cfi_def_cfa 7, 8
	ret
	.cfi_endproc
.LFE3674:
	.size	_ZNK7HashMapINSt7__cxx1112basic_stringIcSt11char_traitsIcESaIcEEEiSt4hashIS5_EE7Element7DeletedEv, .-_ZNK7HashMapINSt7__cxx1112basic_stringIcSt11char_traitsIcESaIcEEEiSt4hashIS5_EE7Element7DeletedEv
	.section	.text._ZN11make_result2OkIiEE5MaybeIT_ERS2_,"axG",@progbits,_ZN11make_result2OkIiEE5MaybeIT_ERS2_,comdat
	.weak	_ZN11make_result2OkIiEE5MaybeIT_ERS2_
	.type	_ZN11make_result2OkIiEE5MaybeIT_ERS2_, @function
_ZN11make_result2OkIiEE5MaybeIT_ERS2_:
.LFB3675:
	.cfi_startproc
	pushq	%rbp
	.cfi_def_cfa_offset 16
	.cfi_offset 6, -16
	movq	%rsp, %rbp
	.cfi_def_cfa_register 6
	subq	$16, %rsp
	movq	%rdi, -8(%rbp)
	movq	%rsi, -16(%rbp)
	movq	-16(%rbp), %rdx
	movq	-8(%rbp), %rax
	movq	%rdx, %rsi
	movq	%rax, %rdi
	call	_ZN5MaybeIiEC1IJRiEEEDpOT_
	movq	-8(%rbp), %rax
	leave
	.cfi_def_cfa 7, 8
	ret
	.cfi_endproc
.LFE3675:
	.size	_ZN11make_result2OkIiEE5MaybeIT_ERS2_, .-_ZN11make_result2OkIiEE5MaybeIT_ERS2_
	.section	.text._ZN7Failurecv5MaybeIT_EIiEEv,"axG",@progbits,_ZN7Failurecv5MaybeIT_EIiEEv,comdat
	.align 2
	.weak	_ZN7Failurecv5MaybeIT_EIiEEv
	.type	_ZN7Failurecv5MaybeIT_EIiEEv, @function
_ZN7Failurecv5MaybeIT_EIiEEv:
.LFB3676:
	.cfi_startproc
	pushq	%rbp
	.cfi_def_cfa_offset 16
	.cfi_offset 6, -16
	movq	%rsp, %rbp
	.cfi_def_cfa_register 6
	subq	$16, %rsp
	movq	%rdi, -8(%rbp)
	movq	%rsi, -16(%rbp)
	movq	-16(%rbp), %rax
	movl	(%rax), %ecx
	movq	8(%rax), %rdx
	movq	-8(%rbp), %rax
	movl	%ecx, %esi
	movq	%rax, %rdi
	call	_ZN5MaybeIiEC1ESt10error_code
	movq	-8(%rbp), %rax
	leave
	.cfi_def_cfa 7, 8
	ret
	.cfi_endproc
.LFE3676:
	.size	_ZN7Failurecv5MaybeIT_EIiEEv, .-_ZN7Failurecv5MaybeIT_EIiEEv
	.section	.text._ZNSaIN7HashMapINSt7__cxx1112basic_stringIcSt11char_traitsIcESaIcEEEiSt4hashIS5_EE7ElementEEC2Ev,"axG",@progbits,_ZNSaIN7HashMapINSt7__cxx1112basic_stringIcSt11char_traitsIcESaIcEEEiSt4hashIS5_EE7ElementEEC5Ev,comdat
	.align 2
	.weak	_ZNSaIN7HashMapINSt7__cxx1112basic_stringIcSt11char_traitsIcESaIcEEEiSt4hashIS5_EE7ElementEEC2Ev
	.type	_ZNSaIN7HashMapINSt7__cxx1112basic_stringIcSt11char_traitsIcESaIcEEEiSt4hashIS5_EE7ElementEEC2Ev, @function
_ZNSaIN7HashMapINSt7__cxx1112basic_stringIcSt11char_traitsIcESaIcEEEiSt4hashIS5_EE7ElementEEC2Ev:
.LFB3709:
	.cfi_startproc
	pushq	%rbp
	.cfi_def_cfa_offset 16
	.cfi_offset 6, -16
	movq	%rsp, %rbp
	.cfi_def_cfa_register 6
	subq	$16, %rsp
	movq	%rdi, -8(%rbp)
	movq	-8(%rbp), %rax
	movq	%rax, %rdi
	call	_ZN9__gnu_cxx13new_allocatorIN7HashMapINSt7__cxx1112basic_stringIcSt11char_traitsIcESaIcEEEiSt4hashIS7_EE7ElementEEC2Ev
	nop
	leave
	.cfi_def_cfa 7, 8
	ret
	.cfi_endproc
.LFE3709:
	.size	_ZNSaIN7HashMapINSt7__cxx1112basic_stringIcSt11char_traitsIcESaIcEEEiSt4hashIS5_EE7ElementEEC2Ev, .-_ZNSaIN7HashMapINSt7__cxx1112basic_stringIcSt11char_traitsIcESaIcEEEiSt4hashIS5_EE7ElementEEC2Ev
	.weak	_ZNSaIN7HashMapINSt7__cxx1112basic_stringIcSt11char_traitsIcESaIcEEEiSt4hashIS5_EE7ElementEEC1Ev
	.set	_ZNSaIN7HashMapINSt7__cxx1112basic_stringIcSt11char_traitsIcESaIcEEEiSt4hashIS5_EE7ElementEEC1Ev,_ZNSaIN7HashMapINSt7__cxx1112basic_stringIcSt11char_traitsIcESaIcEEEiSt4hashIS5_EE7ElementEEC2Ev
	.section	.text._ZNSt12_Vector_baseIN7HashMapINSt7__cxx1112basic_stringIcSt11char_traitsIcESaIcEEEiSt4hashIS6_EE7ElementESaISA_EE17_Vector_impl_dataC2Ev,"axG",@progbits,_ZNSt12_Vector_baseIN7HashMapINSt7__cxx1112basic_stringIcSt11char_traitsIcESaIcEEEiSt4hashIS6_EE7ElementESaISA_EE17_Vector_impl_dataC5Ev,comdat
	.align 2
	.weak	_ZNSt12_Vector_baseIN7HashMapINSt7__cxx1112basic_stringIcSt11char_traitsIcESaIcEEEiSt4hashIS6_EE7ElementESaISA_EE17_Vector_impl_dataC2Ev
	.type	_ZNSt12_Vector_baseIN7HashMapINSt7__cxx1112basic_stringIcSt11char_traitsIcESaIcEEEiSt4hashIS6_EE7ElementESaISA_EE17_Vector_impl_dataC2Ev, @function
_ZNSt12_Vector_baseIN7HashMapINSt7__cxx1112basic_stringIcSt11char_traitsIcESaIcEEEiSt4hashIS6_EE7ElementESaISA_EE17_Vector_impl_dataC2Ev:
.LFB3712:
	.cfi_startproc
	pushq	%rbp
	.cfi_def_cfa_offset 16
	.cfi_offset 6, -16
	movq	%rsp, %rbp
	.cfi_def_cfa_register 6
	movq	%rdi, -8(%rbp)
	movq	-8(%rbp), %rax
	movq	$0, (%rax)
	movq	-8(%rbp), %rax
	movq	$0, 8(%rax)
	movq	-8(%rbp), %rax
	movq	$0, 16(%rax)
	nop
	popq	%rbp
	.cfi_def_cfa 7, 8
	ret
	.cfi_endproc
.LFE3712:
	.size	_ZNSt12_Vector_baseIN7HashMapINSt7__cxx1112basic_stringIcSt11char_traitsIcESaIcEEEiSt4hashIS6_EE7ElementESaISA_EE17_Vector_impl_dataC2Ev, .-_ZNSt12_Vector_baseIN7HashMapINSt7__cxx1112basic_stringIcSt11char_traitsIcESaIcEEEiSt4hashIS6_EE7ElementESaISA_EE17_Vector_impl_dataC2Ev
	.weak	_ZNSt12_Vector_baseIN7HashMapINSt7__cxx1112basic_stringIcSt11char_traitsIcESaIcEEEiSt4hashIS6_EE7ElementESaISA_EE17_Vector_impl_dataC1Ev
	.set	_ZNSt12_Vector_baseIN7HashMapINSt7__cxx1112basic_stringIcSt11char_traitsIcESaIcEEEiSt4hashIS6_EE7ElementESaISA_EE17_Vector_impl_dataC1Ev,_ZNSt12_Vector_baseIN7HashMapINSt7__cxx1112basic_stringIcSt11char_traitsIcESaIcEEEiSt4hashIS6_EE7ElementESaISA_EE17_Vector_impl_dataC2Ev
	.section	.text._ZN9__gnu_cxx13new_allocatorIN7HashMapINSt7__cxx1112basic_stringIcSt11char_traitsIcESaIcEEEiSt4hashIS7_EE7ElementEED2Ev,"axG",@progbits,_ZN9__gnu_cxx13new_allocatorIN7HashMapINSt7__cxx1112basic_stringIcSt11char_traitsIcESaIcEEEiSt4hashIS7_EE7ElementEED5Ev,comdat
	.align 2
	.weak	_ZN9__gnu_cxx13new_allocatorIN7HashMapINSt7__cxx1112basic_stringIcSt11char_traitsIcESaIcEEEiSt4hashIS7_EE7ElementEED2Ev
	.type	_ZN9__gnu_cxx13new_allocatorIN7HashMapINSt7__cxx1112basic_stringIcSt11char_traitsIcESaIcEEEiSt4hashIS7_EE7ElementEED2Ev, @function
_ZN9__gnu_cxx13new_allocatorIN7HashMapINSt7__cxx1112basic_stringIcSt11char_traitsIcESaIcEEEiSt4hashIS7_EE7ElementEED2Ev:
.LFB3715:
	.cfi_startproc
	pushq	%rbp
	.cfi_def_cfa_offset 16
	.cfi_offset 6, -16
	movq	%rsp, %rbp
	.cfi_def_cfa_register 6
	movq	%rdi, -8(%rbp)
	nop
	popq	%rbp
	.cfi_def_cfa 7, 8
	ret
	.cfi_endproc
.LFE3715:
	.size	_ZN9__gnu_cxx13new_allocatorIN7HashMapINSt7__cxx1112basic_stringIcSt11char_traitsIcESaIcEEEiSt4hashIS7_EE7ElementEED2Ev, .-_ZN9__gnu_cxx13new_allocatorIN7HashMapINSt7__cxx1112basic_stringIcSt11char_traitsIcESaIcEEEiSt4hashIS7_EE7ElementEED2Ev
	.weak	_ZN9__gnu_cxx13new_allocatorIN7HashMapINSt7__cxx1112basic_stringIcSt11char_traitsIcESaIcEEEiSt4hashIS7_EE7ElementEED1Ev
	.set	_ZN9__gnu_cxx13new_allocatorIN7HashMapINSt7__cxx1112basic_stringIcSt11char_traitsIcESaIcEEEiSt4hashIS7_EE7ElementEED1Ev,_ZN9__gnu_cxx13new_allocatorIN7HashMapINSt7__cxx1112basic_stringIcSt11char_traitsIcESaIcEEEiSt4hashIS7_EE7ElementEED2Ev
	.section	.text._ZNSt12_Vector_baseIN7HashMapINSt7__cxx1112basic_stringIcSt11char_traitsIcESaIcEEEiSt4hashIS6_EE7ElementESaISA_EE13_M_deallocateEPSA_m,"axG",@progbits,_ZNSt12_Vector_baseIN7HashMapINSt7__cxx1112basic_stringIcSt11char_traitsIcESaIcEEEiSt4hashIS6_EE7ElementESaISA_EE13_M_deallocateEPSA_m,comdat
	.align 2
	.weak	_ZNSt12_Vector_baseIN7HashMapINSt7__cxx1112basic_stringIcSt11char_traitsIcESaIcEEEiSt4hashIS6_EE7ElementESaISA_EE13_M_deallocateEPSA_m
	.type	_ZNSt12_Vector_baseIN7HashMapINSt7__cxx1112basic_stringIcSt11char_traitsIcESaIcEEEiSt4hashIS6_EE7ElementESaISA_EE13_M_deallocateEPSA_m, @function
_ZNSt12_Vector_baseIN7HashMapINSt7__cxx1112basic_stringIcSt11char_traitsIcESaIcEEEiSt4hashIS6_EE7ElementESaISA_EE13_M_deallocateEPSA_m:
.LFB3717:
	.cfi_startproc
	pushq	%rbp
	.cfi_def_cfa_offset 16
	.cfi_offset 6, -16
	movq	%rsp, %rbp
	.cfi_def_cfa_register 6
	subq	$32, %rsp
	movq	%rdi, -8(%rbp)
	movq	%rsi, -16(%rbp)
	movq	%rdx, -24(%rbp)
	cmpq	$0, -16(%rbp)
	je	.L187
	movq	-8(%rbp), %rax
	movq	-24(%rbp), %rdx
	movq	-16(%rbp), %rcx
	movq	%rcx, %rsi
	movq	%rax, %rdi
	call	_ZNSt16allocator_traitsISaIN7HashMapINSt7__cxx1112basic_stringIcSt11char_traitsIcESaIcEEEiSt4hashIS6_EE7ElementEEE10deallocateERSB_PSA_m
.L187:
	nop
	leave
	.cfi_def_cfa 7, 8
	ret
	.cfi_endproc
.LFE3717:
	.size	_ZNSt12_Vector_baseIN7HashMapINSt7__cxx1112basic_stringIcSt11char_traitsIcESaIcEEEiSt4hashIS6_EE7ElementESaISA_EE13_M_deallocateEPSA_m, .-_ZNSt12_Vector_baseIN7HashMapINSt7__cxx1112basic_stringIcSt11char_traitsIcESaIcEEEiSt4hashIS6_EE7ElementESaISA_EE13_M_deallocateEPSA_m
	.section	.text._ZNKSt6vectorIN7HashMapINSt7__cxx1112basic_stringIcSt11char_traitsIcESaIcEEEiSt4hashIS6_EE7ElementESaISA_EE4sizeEv,"axG",@progbits,_ZNKSt6vectorIN7HashMapINSt7__cxx1112basic_stringIcSt11char_traitsIcESaIcEEEiSt4hashIS6_EE7ElementESaISA_EE4sizeEv,comdat
	.align 2
	.weak	_ZNKSt6vectorIN7HashMapINSt7__cxx1112basic_stringIcSt11char_traitsIcESaIcEEEiSt4hashIS6_EE7ElementESaISA_EE4sizeEv
	.type	_ZNKSt6vectorIN7HashMapINSt7__cxx1112basic_stringIcSt11char_traitsIcESaIcEEEiSt4hashIS6_EE7ElementESaISA_EE4sizeEv, @function
_ZNKSt6vectorIN7HashMapINSt7__cxx1112basic_stringIcSt11char_traitsIcESaIcEEEiSt4hashIS6_EE7ElementESaISA_EE4sizeEv:
.LFB3718:
	.cfi_startproc
	pushq	%rbp
	.cfi_def_cfa_offset 16
	.cfi_offset 6, -16
	movq	%rsp, %rbp
	.cfi_def_cfa_register 6
	movq	%rdi, -8(%rbp)
	movq	-8(%rbp), %rax
	movq	8(%rax), %rdx
	movq	-8(%rbp), %rax
	movq	(%rax), %rax
	subq	%rax, %rdx
	movq	%rdx, %rax
	sarq	$3, %rax
	movq	%rax, %rdx
	movabsq	$-3689348814741910323, %rax
	imulq	%rdx, %rax
	popq	%rbp
	.cfi_def_cfa 7, 8
	ret
	.cfi_endproc
.LFE3718:
	.size	_ZNKSt6vectorIN7HashMapINSt7__cxx1112basic_stringIcSt11char_traitsIcESaIcEEEiSt4hashIS6_EE7ElementESaISA_EE4sizeEv, .-_ZNKSt6vectorIN7HashMapINSt7__cxx1112basic_stringIcSt11char_traitsIcESaIcEEEiSt4hashIS6_EE7ElementESaISA_EE4sizeEv
	.section	.text._ZNSt6vectorIN7HashMapINSt7__cxx1112basic_stringIcSt11char_traitsIcESaIcEEEiSt4hashIS6_EE7ElementESaISA_EE17_M_default_appendEm,"axG",@progbits,_ZNSt6vectorIN7HashMapINSt7__cxx1112basic_stringIcSt11char_traitsIcESaIcEEEiSt4hashIS6_EE7ElementESaISA_EE17_M_default_appendEm,comdat
	.align 2
	.weak	_ZNSt6vectorIN7HashMapINSt7__cxx1112basic_stringIcSt11char_traitsIcESaIcEEEiSt4hashIS6_EE7ElementESaISA_EE17_M_default_appendEm
	.type	_ZNSt6vectorIN7HashMapINSt7__cxx1112basic_stringIcSt11char_traitsIcESaIcEEEiSt4hashIS6_EE7ElementESaISA_EE17_M_default_appendEm, @function
_ZNSt6vectorIN7HashMapINSt7__cxx1112basic_stringIcSt11char_traitsIcESaIcEEEiSt4hashIS6_EE7ElementESaISA_EE17_M_default_appendEm:
.LFB3719:
	.cfi_startproc
	.cfi_personality 0x9b,DW.ref.__gxx_personality_v0
	.cfi_lsda 0x1b,.LLSDA3719
	pushq	%rbp
	.cfi_def_cfa_offset 16
	.cfi_offset 6, -16
	movq	%rsp, %rbp
	.cfi_def_cfa_register 6
	pushq	%rbx
	subq	$56, %rsp
	.cfi_offset 3, -24
	movq	%rdi, -56(%rbp)
	movq	%rsi, -64(%rbp)
	cmpq	$0, -64(%rbp)
	je	.L201
	movq	-56(%rbp), %rax
	movq	%rax, %rdi
	call	_ZNKSt6vectorIN7HashMapINSt7__cxx1112basic_stringIcSt11char_traitsIcESaIcEEEiSt4hashIS6_EE7ElementESaISA_EE4sizeEv
	movq	%rax, -48(%rbp)
	movq	-56(%rbp), %rax
	movq	16(%rax), %rdx
	movq	-56(%rbp), %rax
	movq	8(%rax), %rax
	subq	%rax, %rdx
	movq	%rdx, %rax
	sarq	$3, %rax
	movq	%rax, %rdx
	movabsq	$-3689348814741910323, %rax
	imulq	%rdx, %rax
	movq	%rax, -40(%rbp)
	movq	-56(%rbp), %rax
	movq	%rax, %rdi
	call	_ZNKSt6vectorIN7HashMapINSt7__cxx1112basic_stringIcSt11char_traitsIcESaIcEEEiSt4hashIS6_EE7ElementESaISA_EE8max_sizeEv
	cmpq	%rax, -48(%rbp)
	ja	.L192
	movq	-56(%rbp), %rax
	movq	%rax, %rdi
	call	_ZNKSt6vectorIN7HashMapINSt7__cxx1112basic_stringIcSt11char_traitsIcESaIcEEEiSt4hashIS6_EE7ElementESaISA_EE8max_sizeEv
	subq	-48(%rbp), %rax
	cmpq	%rax, -40(%rbp)
	jbe	.L193
.L192:
	movl	$1, %eax
	jmp	.L194
.L193:
	movl	$0, %eax
.L194:
	testb	%al, %al
	movq	-40(%rbp), %rax
	cmpq	-64(%rbp), %rax
	jb	.L196
	movq	-56(%rbp), %rax
	movq	%rax, %rdi
	call	_ZNSt12_Vector_baseIN7HashMapINSt7__cxx1112basic_stringIcSt11char_traitsIcESaIcEEEiSt4hashIS6_EE7ElementESaISA_EE19_M_get_Tp_allocatorEv
	movq	%rax, %rdx
	movq	-56(%rbp), %rax
	movq	8(%rax), %rax
	movq	-64(%rbp), %rcx
	movq	%rcx, %rsi
	movq	%rax, %rdi
.LEHB21:
	call	_ZSt27__uninitialized_default_n_aIPN7HashMapINSt7__cxx1112basic_stringIcSt11char_traitsIcESaIcEEEiSt4hashIS6_EE7ElementEmSA_ET_SC_T0_RSaIT1_E
	movq	-56(%rbp), %rdx
	movq	%rax, 8(%rdx)
	jmp	.L201
.L196:
	movq	-64(%rbp), %rcx
	movq	-56(%rbp), %rax
	leaq	.LC2(%rip), %rdx
	movq	%rcx, %rsi
	movq	%rax, %rdi
	call	_ZNKSt6vectorIN7HashMapINSt7__cxx1112basic_stringIcSt11char_traitsIcESaIcEEEiSt4hashIS6_EE7ElementESaISA_EE12_M_check_lenEmPKc
	movq	%rax, -32(%rbp)
	movq	-56(%rbp), %rax
	movq	-32(%rbp), %rdx
	movq	%rdx, %rsi
	movq	%rax, %rdi
	call	_ZNSt12_Vector_baseIN7HashMapINSt7__cxx1112basic_stringIcSt11char_traitsIcESaIcEEEiSt4hashIS6_EE7ElementESaISA_EE11_M_allocateEm
.LEHE21:
	movq	%rax, -24(%rbp)
	movq	-56(%rbp), %rax
	movq	%rax, %rdi
	call	_ZNSt12_Vector_baseIN7HashMapINSt7__cxx1112basic_stringIcSt11char_traitsIcESaIcEEEiSt4hashIS6_EE7ElementESaISA_EE19_M_get_Tp_allocatorEv
	movq	%rax, %rsi
	movq	-48(%rbp), %rdx
	movq	%rdx, %rax
	salq	$2, %rax
	addq	%rdx, %rax
	salq	$3, %rax
	movq	%rax, %rdx
	movq	-24(%rbp), %rax
	leaq	(%rdx,%rax), %rcx
	movq	-64(%rbp), %rax
	movq	%rsi, %rdx
	movq	%rax, %rsi
	movq	%rcx, %rdi
.LEHB22:
	call	_ZSt27__uninitialized_default_n_aIPN7HashMapINSt7__cxx1112basic_stringIcSt11char_traitsIcESaIcEEEiSt4hashIS6_EE7ElementEmSA_ET_SC_T0_RSaIT1_E
.LEHE22:
	movq	-56(%rbp), %rax
	movq	%rax, %rdi
	call	_ZNSt12_Vector_baseIN7HashMapINSt7__cxx1112basic_stringIcSt11char_traitsIcESaIcEEEiSt4hashIS6_EE7ElementESaISA_EE19_M_get_Tp_allocatorEv
	movq	%rax, %rcx
	movq	-56(%rbp), %rax
	movq	8(%rax), %rsi
	movq	-56(%rbp), %rax
	movq	(%rax), %rax
	movq	-24(%rbp), %rdx
	movq	%rax, %rdi
	call	_ZNSt6vectorIN7HashMapINSt7__cxx1112basic_stringIcSt11char_traitsIcESaIcEEEiSt4hashIS6_EE7ElementESaISA_EE11_S_relocateEPSA_SD_SD_RSB_
	movq	-56(%rbp), %rax
	movq	-56(%rbp), %rdx
	movq	16(%rdx), %rcx
	movq	-56(%rbp), %rdx
	movq	(%rdx), %rdx
	subq	%rdx, %rcx
	movq	%rcx, %rdx
	movq	%rdx, %rcx
	sarq	$3, %rcx
	movabsq	$-3689348814741910323, %rdx
	imulq	%rcx, %rdx
	movq	%rdx, %rsi
	movq	-56(%rbp), %rdx
	movq	(%rdx), %rcx
	movq	%rsi, %rdx
	movq	%rcx, %rsi
	movq	%rax, %rdi
.LEHB23:
	call	_ZNSt12_Vector_baseIN7HashMapINSt7__cxx1112basic_stringIcSt11char_traitsIcESaIcEEEiSt4hashIS6_EE7ElementESaISA_EE13_M_deallocateEPSA_m
.LEHE23:
	movq	-56(%rbp), %rax
	movq	-24(%rbp), %rdx
	movq	%rdx, (%rax)
	movq	-48(%rbp), %rdx
	movq	-64(%rbp), %rax
	addq	%rax, %rdx
	movq	%rdx, %rax
	salq	$2, %rax
	addq	%rdx, %rax
	salq	$3, %rax
	movq	%rax, %rdx
	movq	-24(%rbp), %rax
	addq	%rax, %rdx
	movq	-56(%rbp), %rax
	movq	%rdx, 8(%rax)
	movq	-32(%rbp), %rdx
	movq	%rdx, %rax
	salq	$2, %rax
	addq	%rdx, %rax
	salq	$3, %rax
	movq	%rax, %rdx
	movq	-24(%rbp), %rax
	addq	%rax, %rdx
	movq	-56(%rbp), %rax
	movq	%rdx, 16(%rax)
	jmp	.L201
.L199:
	movq	%rax, %rdi
	call	__cxa_begin_catch@PLT
	movq	-56(%rbp), %rax
	movq	-32(%rbp), %rdx
	movq	-24(%rbp), %rcx
	movq	%rcx, %rsi
	movq	%rax, %rdi
.LEHB24:
	call	_ZNSt12_Vector_baseIN7HashMapINSt7__cxx1112basic_stringIcSt11char_traitsIcESaIcEEEiSt4hashIS6_EE7ElementESaISA_EE13_M_deallocateEPSA_m
	call	__cxa_rethrow@PLT
.LEHE24:
.L200:
	movq	%rax, %rbx
	call	__cxa_end_catch@PLT
	movq	%rbx, %rax
	movq	%rax, %rdi
.LEHB25:
	call	_Unwind_Resume@PLT
.LEHE25:
.L201:
	nop
	addq	$56, %rsp
	popq	%rbx
	popq	%rbp
	.cfi_def_cfa 7, 8
	ret
	.cfi_endproc
.LFE3719:
	.section	.gcc_except_table
	.align 4
.LLSDA3719:
	.byte	0xff
	.byte	0x9b
	.uleb128 .LLSDATT3719-.LLSDATTD3719
.LLSDATTD3719:
	.byte	0x1
	.uleb128 .LLSDACSE3719-.LLSDACSB3719
.LLSDACSB3719:
	.uleb128 .LEHB21-.LFB3719
	.uleb128 .LEHE21-.LEHB21
	.uleb128 0
	.uleb128 0
	.uleb128 .LEHB22-.LFB3719
	.uleb128 .LEHE22-.LEHB22
	.uleb128 .L199-.LFB3719
	.uleb128 0x1
	.uleb128 .LEHB23-.LFB3719
	.uleb128 .LEHE23-.LEHB23
	.uleb128 0
	.uleb128 0
	.uleb128 .LEHB24-.LFB3719
	.uleb128 .LEHE24-.LEHB24
	.uleb128 .L200-.LFB3719
	.uleb128 0
	.uleb128 .LEHB25-.LFB3719
	.uleb128 .LEHE25-.LEHB25
	.uleb128 0
	.uleb128 0
.LLSDACSE3719:
	.byte	0x1
	.byte	0
	.align 4
	.long	0

.LLSDATT3719:
	.section	.text._ZNSt6vectorIN7HashMapINSt7__cxx1112basic_stringIcSt11char_traitsIcESaIcEEEiSt4hashIS6_EE7ElementESaISA_EE17_M_default_appendEm,"axG",@progbits,_ZNSt6vectorIN7HashMapINSt7__cxx1112basic_stringIcSt11char_traitsIcESaIcEEEiSt4hashIS6_EE7ElementESaISA_EE17_M_default_appendEm,comdat
	.size	_ZNSt6vectorIN7HashMapINSt7__cxx1112basic_stringIcSt11char_traitsIcESaIcEEEiSt4hashIS6_EE7ElementESaISA_EE17_M_default_appendEm, .-_ZNSt6vectorIN7HashMapINSt7__cxx1112basic_stringIcSt11char_traitsIcESaIcEEEiSt4hashIS6_EE7ElementESaISA_EE17_M_default_appendEm
	.section	.text._ZNSt6vectorIN7HashMapINSt7__cxx1112basic_stringIcSt11char_traitsIcESaIcEEEiSt4hashIS6_EE7ElementESaISA_EE15_M_erase_at_endEPSA_,"axG",@progbits,_ZNSt6vectorIN7HashMapINSt7__cxx1112basic_stringIcSt11char_traitsIcESaIcEEEiSt4hashIS6_EE7ElementESaISA_EE15_M_erase_at_endEPSA_,comdat
	.align 2
	.weak	_ZNSt6vectorIN7HashMapINSt7__cxx1112basic_stringIcSt11char_traitsIcESaIcEEEiSt4hashIS6_EE7ElementESaISA_EE15_M_erase_at_endEPSA_
	.type	_ZNSt6vectorIN7HashMapINSt7__cxx1112basic_stringIcSt11char_traitsIcESaIcEEEiSt4hashIS6_EE7ElementESaISA_EE15_M_erase_at_endEPSA_, @function
_ZNSt6vectorIN7HashMapINSt7__cxx1112basic_stringIcSt11char_traitsIcESaIcEEEiSt4hashIS6_EE7ElementESaISA_EE15_M_erase_at_endEPSA_:
.LFB3722:
	.cfi_startproc
	.cfi_personality 0x9b,DW.ref.__gxx_personality_v0
	.cfi_lsda 0x1b,.LLSDA3722
	pushq	%rbp
	.cfi_def_cfa_offset 16
	.cfi_offset 6, -16
	movq	%rsp, %rbp
	.cfi_def_cfa_register 6
	subq	$32, %rsp
	movq	%rdi, -24(%rbp)
	movq	%rsi, -32(%rbp)
	movq	-24(%rbp), %rax
	movq	8(%rax), %rax
	subq	-32(%rbp), %rax
	sarq	$3, %rax
	movq	%rax, %rdx
	movabsq	$-3689348814741910323, %rax
	imulq	%rdx, %rax
	movq	%rax, -8(%rbp)
	cmpq	$0, -8(%rbp)
	je	.L204
	movq	-24(%rbp), %rax
	movq	%rax, %rdi
	call	_ZNSt12_Vector_baseIN7HashMapINSt7__cxx1112basic_stringIcSt11char_traitsIcESaIcEEEiSt4hashIS6_EE7ElementESaISA_EE19_M_get_Tp_allocatorEv
	movq	%rax, %rdx
	movq	-24(%rbp), %rax
	movq	8(%rax), %rcx
	movq	-32(%rbp), %rax
	movq	%rcx, %rsi
	movq	%rax, %rdi
	call	_ZSt8_DestroyIPN7HashMapINSt7__cxx1112basic_stringIcSt11char_traitsIcESaIcEEEiSt4hashIS6_EE7ElementESA_EvT_SC_RSaIT0_E
	movq	-24(%rbp), %rax
	movq	-32(%rbp), %rdx
	movq	%rdx, 8(%rax)
.L204:
	nop
	leave
	.cfi_def_cfa 7, 8
	ret
	.cfi_endproc
.LFE3722:
	.section	.gcc_except_table
.LLSDA3722:
	.byte	0xff
	.byte	0xff
	.byte	0x1
	.uleb128 .LLSDACSE3722-.LLSDACSB3722
.LLSDACSB3722:
.LLSDACSE3722:
	.section	.text._ZNSt6vectorIN7HashMapINSt7__cxx1112basic_stringIcSt11char_traitsIcESaIcEEEiSt4hashIS6_EE7ElementESaISA_EE15_M_erase_at_endEPSA_,"axG",@progbits,_ZNSt6vectorIN7HashMapINSt7__cxx1112basic_stringIcSt11char_traitsIcESaIcEEEiSt4hashIS6_EE7ElementESaISA_EE15_M_erase_at_endEPSA_,comdat
	.size	_ZNSt6vectorIN7HashMapINSt7__cxx1112basic_stringIcSt11char_traitsIcESaIcEEEiSt4hashIS6_EE7ElementESaISA_EE15_M_erase_at_endEPSA_, .-_ZNSt6vectorIN7HashMapINSt7__cxx1112basic_stringIcSt11char_traitsIcESaIcEEEiSt4hashIS6_EE7ElementESaISA_EE15_M_erase_at_endEPSA_
	.section	.text._ZSt8_DestroyIPN7HashMapINSt7__cxx1112basic_stringIcSt11char_traitsIcESaIcEEEiSt4hashIS6_EE7ElementEEvT_SC_,"axG",@progbits,_ZSt8_DestroyIPN7HashMapINSt7__cxx1112basic_stringIcSt11char_traitsIcESaIcEEEiSt4hashIS6_EE7ElementEEvT_SC_,comdat
	.weak	_ZSt8_DestroyIPN7HashMapINSt7__cxx1112basic_stringIcSt11char_traitsIcESaIcEEEiSt4hashIS6_EE7ElementEEvT_SC_
	.type	_ZSt8_DestroyIPN7HashMapINSt7__cxx1112basic_stringIcSt11char_traitsIcESaIcEEEiSt4hashIS6_EE7ElementEEvT_SC_, @function
_ZSt8_DestroyIPN7HashMapINSt7__cxx1112basic_stringIcSt11char_traitsIcESaIcEEEiSt4hashIS6_EE7ElementEEvT_SC_:
.LFB3723:
	.cfi_startproc
	pushq	%rbp
	.cfi_def_cfa_offset 16
	.cfi_offset 6, -16
	movq	%rsp, %rbp
	.cfi_def_cfa_register 6
	subq	$16, %rsp
	movq	%rdi, -8(%rbp)
	movq	%rsi, -16(%rbp)
	movq	-16(%rbp), %rdx
	movq	-8(%rbp), %rax
	movq	%rdx, %rsi
	movq	%rax, %rdi
	call	_ZNSt12_Destroy_auxILb0EE9__destroyIPN7HashMapINSt7__cxx1112basic_stringIcSt11char_traitsIcESaIcEEEiSt4hashIS8_EE7ElementEEEvT_SE_
	nop
	leave
	.cfi_def_cfa 7, 8
	ret
	.cfi_endproc
.LFE3723:
	.size	_ZSt8_DestroyIPN7HashMapINSt7__cxx1112basic_stringIcSt11char_traitsIcESaIcEEEiSt4hashIS6_EE7ElementEEvT_SC_, .-_ZSt8_DestroyIPN7HashMapINSt7__cxx1112basic_stringIcSt11char_traitsIcESaIcEEEiSt4hashIS6_EE7ElementEEvT_SC_
	.section	.text._ZN9__gnu_cxx13new_allocatorINSt7__cxx1112basic_stringIcSt11char_traitsIcESaIcEEEEC2Ev,"axG",@progbits,_ZN9__gnu_cxx13new_allocatorINSt7__cxx1112basic_stringIcSt11char_traitsIcESaIcEEEEC5Ev,comdat
	.align 2
	.weak	_ZN9__gnu_cxx13new_allocatorINSt7__cxx1112basic_stringIcSt11char_traitsIcESaIcEEEEC2Ev
	.type	_ZN9__gnu_cxx13new_allocatorINSt7__cxx1112basic_stringIcSt11char_traitsIcESaIcEEEEC2Ev, @function
_ZN9__gnu_cxx13new_allocatorINSt7__cxx1112basic_stringIcSt11char_traitsIcESaIcEEEEC2Ev:
.LFB3725:
	.cfi_startproc
	pushq	%rbp
	.cfi_def_cfa_offset 16
	.cfi_offset 6, -16
	movq	%rsp, %rbp
	.cfi_def_cfa_register 6
	movq	%rdi, -8(%rbp)
	nop
	popq	%rbp
	.cfi_def_cfa 7, 8
	ret
	.cfi_endproc
.LFE3725:
	.size	_ZN9__gnu_cxx13new_allocatorINSt7__cxx1112basic_stringIcSt11char_traitsIcESaIcEEEEC2Ev, .-_ZN9__gnu_cxx13new_allocatorINSt7__cxx1112basic_stringIcSt11char_traitsIcESaIcEEEEC2Ev
	.weak	_ZN9__gnu_cxx13new_allocatorINSt7__cxx1112basic_stringIcSt11char_traitsIcESaIcEEEEC1Ev
	.set	_ZN9__gnu_cxx13new_allocatorINSt7__cxx1112basic_stringIcSt11char_traitsIcESaIcEEEEC1Ev,_ZN9__gnu_cxx13new_allocatorINSt7__cxx1112basic_stringIcSt11char_traitsIcESaIcEEEEC2Ev
	.section	.text._ZNSt16allocator_traitsISaINSt7__cxx1112basic_stringIcSt11char_traitsIcESaIcEEEEE10deallocateERS6_PS5_m,"axG",@progbits,_ZNSt16allocator_traitsISaINSt7__cxx1112basic_stringIcSt11char_traitsIcESaIcEEEEE10deallocateERS6_PS5_m,comdat
	.weak	_ZNSt16allocator_traitsISaINSt7__cxx1112basic_stringIcSt11char_traitsIcESaIcEEEEE10deallocateERS6_PS5_m
	.type	_ZNSt16allocator_traitsISaINSt7__cxx1112basic_stringIcSt11char_traitsIcESaIcEEEEE10deallocateERS6_PS5_m, @function
_ZNSt16allocator_traitsISaINSt7__cxx1112basic_stringIcSt11char_traitsIcESaIcEEEEE10deallocateERS6_PS5_m:
.LFB3727:
	.cfi_startproc
	pushq	%rbp
	.cfi_def_cfa_offset 16
	.cfi_offset 6, -16
	movq	%rsp, %rbp
	.cfi_def_cfa_register 6
	subq	$32, %rsp
	movq	%rdi, -8(%rbp)
	movq	%rsi, -16(%rbp)
	movq	%rdx, -24(%rbp)
	movq	-24(%rbp), %rdx
	movq	-16(%rbp), %rcx
	movq	-8(%rbp), %rax
	movq	%rcx, %rsi
	movq	%rax, %rdi
	call	_ZN9__gnu_cxx13new_allocatorINSt7__cxx1112basic_stringIcSt11char_traitsIcESaIcEEEE10deallocateEPS6_m
	nop
	leave
	.cfi_def_cfa 7, 8
	ret
	.cfi_endproc
.LFE3727:
	.size	_ZNSt16allocator_traitsISaINSt7__cxx1112basic_stringIcSt11char_traitsIcESaIcEEEEE10deallocateERS6_PS5_m, .-_ZNSt16allocator_traitsISaINSt7__cxx1112basic_stringIcSt11char_traitsIcESaIcEEEEE10deallocateERS6_PS5_m
	.section	.text._ZSt8_DestroyIPNSt7__cxx1112basic_stringIcSt11char_traitsIcESaIcEEEEvT_S7_,"axG",@progbits,_ZSt8_DestroyIPNSt7__cxx1112basic_stringIcSt11char_traitsIcESaIcEEEEvT_S7_,comdat
	.weak	_ZSt8_DestroyIPNSt7__cxx1112basic_stringIcSt11char_traitsIcESaIcEEEEvT_S7_
	.type	_ZSt8_DestroyIPNSt7__cxx1112basic_stringIcSt11char_traitsIcESaIcEEEEvT_S7_, @function
_ZSt8_DestroyIPNSt7__cxx1112basic_stringIcSt11char_traitsIcESaIcEEEEvT_S7_:
.LFB3728:
	.cfi_startproc
	pushq	%rbp
	.cfi_def_cfa_offset 16
	.cfi_offset 6, -16
	movq	%rsp, %rbp
	.cfi_def_cfa_register 6
	subq	$16, %rsp
	movq	%rdi, -8(%rbp)
	movq	%rsi, -16(%rbp)
	movq	-16(%rbp), %rdx
	movq	-8(%rbp), %rax
	movq	%rdx, %rsi
	movq	%rax, %rdi
	call	_ZNSt12_Destroy_auxILb0EE9__destroyIPNSt7__cxx1112basic_stringIcSt11char_traitsIcESaIcEEEEEvT_S9_
	nop
	leave
	.cfi_def_cfa 7, 8
	ret
	.cfi_endproc
.LFE3728:
	.size	_ZSt8_DestroyIPNSt7__cxx1112basic_stringIcSt11char_traitsIcESaIcEEEEvT_S7_, .-_ZSt8_DestroyIPNSt7__cxx1112basic_stringIcSt11char_traitsIcESaIcEEEEvT_S7_
	.section	.text._ZNKSt6vectorINSt7__cxx1112basic_stringIcSt11char_traitsIcESaIcEEESaIS5_EE8max_sizeEv,"axG",@progbits,_ZNKSt6vectorINSt7__cxx1112basic_stringIcSt11char_traitsIcESaIcEEESaIS5_EE8max_sizeEv,comdat
	.align 2
	.weak	_ZNKSt6vectorINSt7__cxx1112basic_stringIcSt11char_traitsIcESaIcEEESaIS5_EE8max_sizeEv
	.type	_ZNKSt6vectorINSt7__cxx1112basic_stringIcSt11char_traitsIcESaIcEEESaIS5_EE8max_sizeEv, @function
_ZNKSt6vectorINSt7__cxx1112basic_stringIcSt11char_traitsIcESaIcEEESaIS5_EE8max_sizeEv:
.LFB3729:
	.cfi_startproc
	pushq	%rbp
	.cfi_def_cfa_offset 16
	.cfi_offset 6, -16
	movq	%rsp, %rbp
	.cfi_def_cfa_register 6
	subq	$16, %rsp
	movq	%rdi, -8(%rbp)
	movq	-8(%rbp), %rax
	movq	%rax, %rdi
	call	_ZNKSt12_Vector_baseINSt7__cxx1112basic_stringIcSt11char_traitsIcESaIcEEESaIS5_EE19_M_get_Tp_allocatorEv
	movq	%rax, %rdi
	call	_ZNSt6vectorINSt7__cxx1112basic_stringIcSt11char_traitsIcESaIcEEESaIS5_EE11_S_max_sizeERKS6_
	leave
	.cfi_def_cfa 7, 8
	ret
	.cfi_endproc
.LFE3729:
	.size	_ZNKSt6vectorINSt7__cxx1112basic_stringIcSt11char_traitsIcESaIcEEESaIS5_EE8max_sizeEv, .-_ZNKSt6vectorINSt7__cxx1112basic_stringIcSt11char_traitsIcESaIcEEESaIS5_EE8max_sizeEv
	.section	.text._ZSt27__uninitialized_default_n_aIPNSt7__cxx1112basic_stringIcSt11char_traitsIcESaIcEEEmS5_ET_S7_T0_RSaIT1_E,"axG",@progbits,_ZSt27__uninitialized_default_n_aIPNSt7__cxx1112basic_stringIcSt11char_traitsIcESaIcEEEmS5_ET_S7_T0_RSaIT1_E,comdat
	.weak	_ZSt27__uninitialized_default_n_aIPNSt7__cxx1112basic_stringIcSt11char_traitsIcESaIcEEEmS5_ET_S7_T0_RSaIT1_E
	.type	_ZSt27__uninitialized_default_n_aIPNSt7__cxx1112basic_stringIcSt11char_traitsIcESaIcEEEmS5_ET_S7_T0_RSaIT1_E, @function
_ZSt27__uninitialized_default_n_aIPNSt7__cxx1112basic_stringIcSt11char_traitsIcESaIcEEEmS5_ET_S7_T0_RSaIT1_E:
.LFB3730:
	.cfi_startproc
	pushq	%rbp
	.cfi_def_cfa_offset 16
	.cfi_offset 6, -16
	movq	%rsp, %rbp
	.cfi_def_cfa_register 6
	subq	$32, %rsp
	movq	%rdi, -8(%rbp)
	movq	%rsi, -16(%rbp)
	movq	%rdx, -24(%rbp)
	movq	-16(%rbp), %rdx
	movq	-8(%rbp), %rax
	movq	%rdx, %rsi
	movq	%rax, %rdi
	call	_ZSt25__uninitialized_default_nIPNSt7__cxx1112basic_stringIcSt11char_traitsIcESaIcEEEmET_S7_T0_
	leave
	.cfi_def_cfa 7, 8
	ret
	.cfi_endproc
.LFE3730:
	.size	_ZSt27__uninitialized_default_n_aIPNSt7__cxx1112basic_stringIcSt11char_traitsIcESaIcEEEmS5_ET_S7_T0_RSaIT1_E, .-_ZSt27__uninitialized_default_n_aIPNSt7__cxx1112basic_stringIcSt11char_traitsIcESaIcEEEmS5_ET_S7_T0_RSaIT1_E
	.section	.text._ZNKSt6vectorINSt7__cxx1112basic_stringIcSt11char_traitsIcESaIcEEESaIS5_EE12_M_check_lenEmPKc,"axG",@progbits,_ZNKSt6vectorINSt7__cxx1112basic_stringIcSt11char_traitsIcESaIcEEESaIS5_EE12_M_check_lenEmPKc,comdat
	.align 2
	.weak	_ZNKSt6vectorINSt7__cxx1112basic_stringIcSt11char_traitsIcESaIcEEESaIS5_EE12_M_check_lenEmPKc
	.type	_ZNKSt6vectorINSt7__cxx1112basic_stringIcSt11char_traitsIcESaIcEEESaIS5_EE12_M_check_lenEmPKc, @function
_ZNKSt6vectorINSt7__cxx1112basic_stringIcSt11char_traitsIcESaIcEEESaIS5_EE12_M_check_lenEmPKc:
.LFB3731:
	.cfi_startproc
	pushq	%rbp
	.cfi_def_cfa_offset 16
	.cfi_offset 6, -16
	movq	%rsp, %rbp
	.cfi_def_cfa_register 6
	pushq	%rbx
	subq	$72, %rsp
	.cfi_offset 3, -24
	movq	%rdi, -56(%rbp)
	movq	%rsi, -64(%rbp)
	movq	%rdx, -72(%rbp)
	movq	%fs:40, %rax
	movq	%rax, -24(%rbp)
	xorl	%eax, %eax
	movq	-56(%rbp), %rax
	movq	%rax, %rdi
	call	_ZNKSt6vectorINSt7__cxx1112basic_stringIcSt11char_traitsIcESaIcEEESaIS5_EE8max_sizeEv
	movq	%rax, %rbx
	movq	-56(%rbp), %rax
	movq	%rax, %rdi
	call	_ZNKSt6vectorINSt7__cxx1112basic_stringIcSt11char_traitsIcESaIcEEESaIS5_EE4sizeEv
	subq	%rax, %rbx
	movq	%rbx, %rdx
	movq	-64(%rbp), %rax
	cmpq	%rax, %rdx
	setb	%al
	testb	%al, %al
	je	.L214
	movq	-72(%rbp), %rax
	movq	%rax, %rdi
	call	_ZSt20__throw_length_errorPKc@PLT
.L214:
	movq	-56(%rbp), %rax
	movq	%rax, %rdi
	call	_ZNKSt6vectorINSt7__cxx1112basic_stringIcSt11char_traitsIcESaIcEEESaIS5_EE4sizeEv
	movq	%rax, %rbx
	movq	-56(%rbp), %rax
	movq	%rax, %rdi
	call	_ZNKSt6vectorINSt7__cxx1112basic_stringIcSt11char_traitsIcESaIcEEESaIS5_EE4sizeEv
	movq	%rax, -40(%rbp)
	leaq	-64(%rbp), %rdx
	leaq	-40(%rbp), %rax
	movq	%rdx, %rsi
	movq	%rax, %rdi
	call	_ZSt3maxImERKT_S2_S2_
	movq	(%rax), %rax
	addq	%rbx, %rax
	movq	%rax, -32(%rbp)
	movq	-56(%rbp), %rax
	movq	%rax, %rdi
	call	_ZNKSt6vectorINSt7__cxx1112basic_stringIcSt11char_traitsIcESaIcEEESaIS5_EE4sizeEv
	cmpq	%rax, -32(%rbp)
	jb	.L215
	movq	-56(%rbp), %rax
	movq	%rax, %rdi
	call	_ZNKSt6vectorINSt7__cxx1112basic_stringIcSt11char_traitsIcESaIcEEESaIS5_EE8max_sizeEv
	cmpq	%rax, -32(%rbp)
	jbe	.L216
.L215:
	movq	-56(%rbp), %rax
	movq	%rax, %rdi
	call	_ZNKSt6vectorINSt7__cxx1112basic_stringIcSt11char_traitsIcESaIcEEESaIS5_EE8max_sizeEv
	jmp	.L217
.L216:
	movq	-32(%rbp), %rax
.L217:
	movq	-24(%rbp), %rcx
	xorq	%fs:40, %rcx
	je	.L219
	call	__stack_chk_fail@PLT
.L219:
	addq	$72, %rsp
	popq	%rbx
	popq	%rbp
	.cfi_def_cfa 7, 8
	ret
	.cfi_endproc
.LFE3731:
	.size	_ZNKSt6vectorINSt7__cxx1112basic_stringIcSt11char_traitsIcESaIcEEESaIS5_EE12_M_check_lenEmPKc, .-_ZNKSt6vectorINSt7__cxx1112basic_stringIcSt11char_traitsIcESaIcEEESaIS5_EE12_M_check_lenEmPKc
	.section	.text._ZNSt12_Vector_baseINSt7__cxx1112basic_stringIcSt11char_traitsIcESaIcEEESaIS5_EE11_M_allocateEm,"axG",@progbits,_ZNSt12_Vector_baseINSt7__cxx1112basic_stringIcSt11char_traitsIcESaIcEEESaIS5_EE11_M_allocateEm,comdat
	.align 2
	.weak	_ZNSt12_Vector_baseINSt7__cxx1112basic_stringIcSt11char_traitsIcESaIcEEESaIS5_EE11_M_allocateEm
	.type	_ZNSt12_Vector_baseINSt7__cxx1112basic_stringIcSt11char_traitsIcESaIcEEESaIS5_EE11_M_allocateEm, @function
_ZNSt12_Vector_baseINSt7__cxx1112basic_stringIcSt11char_traitsIcESaIcEEESaIS5_EE11_M_allocateEm:
.LFB3732:
	.cfi_startproc
	pushq	%rbp
	.cfi_def_cfa_offset 16
	.cfi_offset 6, -16
	movq	%rsp, %rbp
	.cfi_def_cfa_register 6
	subq	$16, %rsp
	movq	%rdi, -8(%rbp)
	movq	%rsi, -16(%rbp)
	cmpq	$0, -16(%rbp)
	je	.L221
	movq	-8(%rbp), %rax
	movq	-16(%rbp), %rdx
	movq	%rdx, %rsi
	movq	%rax, %rdi
	call	_ZNSt16allocator_traitsISaINSt7__cxx1112basic_stringIcSt11char_traitsIcESaIcEEEEE8allocateERS6_m
	jmp	.L223
.L221:
	movl	$0, %eax
.L223:
	leave
	.cfi_def_cfa 7, 8
	ret
	.cfi_endproc
.LFE3732:
	.size	_ZNSt12_Vector_baseINSt7__cxx1112basic_stringIcSt11char_traitsIcESaIcEEESaIS5_EE11_M_allocateEm, .-_ZNSt12_Vector_baseINSt7__cxx1112basic_stringIcSt11char_traitsIcESaIcEEESaIS5_EE11_M_allocateEm
	.section	.text._ZNSt6vectorINSt7__cxx1112basic_stringIcSt11char_traitsIcESaIcEEESaIS5_EE11_S_relocateEPS5_S8_S8_RS6_,"axG",@progbits,_ZNSt6vectorINSt7__cxx1112basic_stringIcSt11char_traitsIcESaIcEEESaIS5_EE11_S_relocateEPS5_S8_S8_RS6_,comdat
	.weak	_ZNSt6vectorINSt7__cxx1112basic_stringIcSt11char_traitsIcESaIcEEESaIS5_EE11_S_relocateEPS5_S8_S8_RS6_
	.type	_ZNSt6vectorINSt7__cxx1112basic_stringIcSt11char_traitsIcESaIcEEESaIS5_EE11_S_relocateEPS5_S8_S8_RS6_, @function
_ZNSt6vectorINSt7__cxx1112basic_stringIcSt11char_traitsIcESaIcEEESaIS5_EE11_S_relocateEPS5_S8_S8_RS6_:
.LFB3733:
	.cfi_startproc
	pushq	%rbp
	.cfi_def_cfa_offset 16
	.cfi_offset 6, -16
	movq	%rsp, %rbp
	.cfi_def_cfa_register 6
	subq	$48, %rsp
	movq	%rdi, -24(%rbp)
	movq	%rsi, -32(%rbp)
	movq	%rdx, -40(%rbp)
	movq	%rcx, -48(%rbp)
	movq	%fs:40, %rax
	movq	%rax, -8(%rbp)
	xorl	%eax, %eax
	movq	-48(%rbp), %rcx
	movq	-40(%rbp), %rdx
	movq	-32(%rbp), %rsi
	movq	-24(%rbp), %rax
	movq	%rax, %rdi
	call	_ZNSt6vectorINSt7__cxx1112basic_stringIcSt11char_traitsIcESaIcEEESaIS5_EE14_S_do_relocateEPS5_S8_S8_RS6_St17integral_constantIbLb1EE
	movq	-8(%rbp), %rdi
	xorq	%fs:40, %rdi
	je	.L226
	call	__stack_chk_fail@PLT
.L226:
	leave
	.cfi_def_cfa 7, 8
	ret
	.cfi_endproc
.LFE3733:
	.size	_ZNSt6vectorINSt7__cxx1112basic_stringIcSt11char_traitsIcESaIcEEESaIS5_EE11_S_relocateEPS5_S8_S8_RS6_, .-_ZNSt6vectorINSt7__cxx1112basic_stringIcSt11char_traitsIcESaIcEEESaIS5_EE11_S_relocateEPS5_S8_S8_RS6_
	.section	.text._ZNSt7__cxx1112basic_stringIcSt11char_traitsIcESaIcEE16_M_construct_auxIPcEEvT_S7_St12__false_type,"axG",@progbits,_ZNSt7__cxx1112basic_stringIcSt11char_traitsIcESaIcEE16_M_construct_auxIPcEEvT_S7_St12__false_type,comdat
	.align 2
	.weak	_ZNSt7__cxx1112basic_stringIcSt11char_traitsIcESaIcEE16_M_construct_auxIPcEEvT_S7_St12__false_type
	.type	_ZNSt7__cxx1112basic_stringIcSt11char_traitsIcESaIcEE16_M_construct_auxIPcEEvT_S7_St12__false_type, @function
_ZNSt7__cxx1112basic_stringIcSt11char_traitsIcESaIcEE16_M_construct_auxIPcEEvT_S7_St12__false_type:
.LFB3738:
	.cfi_startproc
	pushq	%rbp
	.cfi_def_cfa_offset 16
	.cfi_offset 6, -16
	movq	%rsp, %rbp
	.cfi_def_cfa_register 6
	subq	$48, %rsp
	movq	%rdi, -24(%rbp)
	movq	%rsi, -32(%rbp)
	movq	%rdx, -40(%rbp)
	movq	%fs:40, %rax
	movq	%rax, -8(%rbp)
	xorl	%eax, %eax
	movq	-40(%rbp), %rdx
	movq	-32(%rbp), %rcx
	movq	-24(%rbp), %rax
	movq	%rcx, %rsi
	movq	%rax, %rdi
	call	_ZNSt7__cxx1112basic_stringIcSt11char_traitsIcESaIcEE12_M_constructIPcEEvT_S7_St20forward_iterator_tag
	nop
	movq	-8(%rbp), %rax
	xorq	%fs:40, %rax
	je	.L228
	call	__stack_chk_fail@PLT
.L228:
	leave
	.cfi_def_cfa 7, 8
	ret
	.cfi_endproc
.LFE3738:
	.size	_ZNSt7__cxx1112basic_stringIcSt11char_traitsIcESaIcEE16_M_construct_auxIPcEEvT_S7_St12__false_type, .-_ZNSt7__cxx1112basic_stringIcSt11char_traitsIcESaIcEE16_M_construct_auxIPcEEvT_S7_St12__false_type
	.section	.text._ZSt4moveIRSt6vectorIN7HashMapINSt7__cxx1112basic_stringIcSt11char_traitsIcESaIcEEEiSt4hashIS7_EE7ElementESaISB_EEEONSt16remove_referenceIT_E4typeEOSG_,"axG",@progbits,_ZSt4moveIRSt6vectorIN7HashMapINSt7__cxx1112basic_stringIcSt11char_traitsIcESaIcEEEiSt4hashIS7_EE7ElementESaISB_EEEONSt16remove_referenceIT_E4typeEOSG_,comdat
	.weak	_ZSt4moveIRSt6vectorIN7HashMapINSt7__cxx1112basic_stringIcSt11char_traitsIcESaIcEEEiSt4hashIS7_EE7ElementESaISB_EEEONSt16remove_referenceIT_E4typeEOSG_
	.type	_ZSt4moveIRSt6vectorIN7HashMapINSt7__cxx1112basic_stringIcSt11char_traitsIcESaIcEEEiSt4hashIS7_EE7ElementESaISB_EEEONSt16remove_referenceIT_E4typeEOSG_, @function
_ZSt4moveIRSt6vectorIN7HashMapINSt7__cxx1112basic_stringIcSt11char_traitsIcESaIcEEEiSt4hashIS7_EE7ElementESaISB_EEEONSt16remove_referenceIT_E4typeEOSG_:
.LFB3739:
	.cfi_startproc
	pushq	%rbp
	.cfi_def_cfa_offset 16
	.cfi_offset 6, -16
	movq	%rsp, %rbp
	.cfi_def_cfa_register 6
	movq	%rdi, -8(%rbp)
	movq	-8(%rbp), %rax
	popq	%rbp
	.cfi_def_cfa 7, 8
	ret
	.cfi_endproc
.LFE3739:
	.size	_ZSt4moveIRSt6vectorIN7HashMapINSt7__cxx1112basic_stringIcSt11char_traitsIcESaIcEEEiSt4hashIS7_EE7ElementESaISB_EEEONSt16remove_referenceIT_E4typeEOSG_, .-_ZSt4moveIRSt6vectorIN7HashMapINSt7__cxx1112basic_stringIcSt11char_traitsIcESaIcEEEiSt4hashIS7_EE7ElementESaISB_EEEONSt16remove_referenceIT_E4typeEOSG_
	.section	.text._ZNSt12_Vector_baseIN7HashMapINSt7__cxx1112basic_stringIcSt11char_traitsIcESaIcEEEiSt4hashIS6_EE7ElementESaISA_EE12_Vector_implC2EOSD_,"axG",@progbits,_ZNSt12_Vector_baseIN7HashMapINSt7__cxx1112basic_stringIcSt11char_traitsIcESaIcEEEiSt4hashIS6_EE7ElementESaISA_EE12_Vector_implC5EOSD_,comdat
	.align 2
	.weak	_ZNSt12_Vector_baseIN7HashMapINSt7__cxx1112basic_stringIcSt11char_traitsIcESaIcEEEiSt4hashIS6_EE7ElementESaISA_EE12_Vector_implC2EOSD_
	.type	_ZNSt12_Vector_baseIN7HashMapINSt7__cxx1112basic_stringIcSt11char_traitsIcESaIcEEEiSt4hashIS6_EE7ElementESaISA_EE12_Vector_implC2EOSD_, @function
_ZNSt12_Vector_baseIN7HashMapINSt7__cxx1112basic_stringIcSt11char_traitsIcESaIcEEEiSt4hashIS6_EE7ElementESaISA_EE12_Vector_implC2EOSD_:
.LFB3741:
	.cfi_startproc
	pushq	%rbp
	.cfi_def_cfa_offset 16
	.cfi_offset 6, -16
	movq	%rsp, %rbp
	.cfi_def_cfa_register 6
	pushq	%rbx
	subq	$24, %rsp
	.cfi_offset 3, -24
	movq	%rdi, -24(%rbp)
	movq	%rsi, -32(%rbp)
	movq	-32(%rbp), %rax
	movq	%rax, %rdi
	call	_ZSt4moveIRNSt12_Vector_baseIN7HashMapINSt7__cxx1112basic_stringIcSt11char_traitsIcESaIcEEEiSt4hashIS7_EE7ElementESaISB_EE12_Vector_implEEONSt16remove_referenceIT_E4typeEOSH_
	movq	%rax, %rdx
	movq	-24(%rbp), %rax
	movq	%rdx, %rsi
	movq	%rax, %rdi
	call	_ZNSaIN7HashMapINSt7__cxx1112basic_stringIcSt11char_traitsIcESaIcEEEiSt4hashIS5_EE7ElementEEC2ERKSA_
	movq	-24(%rbp), %rbx
	movq	-32(%rbp), %rax
	movq	%rax, %rdi
	call	_ZSt4moveIRNSt12_Vector_baseIN7HashMapINSt7__cxx1112basic_stringIcSt11char_traitsIcESaIcEEEiSt4hashIS7_EE7ElementESaISB_EE12_Vector_implEEONSt16remove_referenceIT_E4typeEOSH_
	movq	%rax, %rsi
	movq	%rbx, %rdi
	call	_ZNSt12_Vector_baseIN7HashMapINSt7__cxx1112basic_stringIcSt11char_traitsIcESaIcEEEiSt4hashIS6_EE7ElementESaISA_EE17_Vector_impl_dataC2EOSD_
	nop
	addq	$24, %rsp
	popq	%rbx
	popq	%rbp
	.cfi_def_cfa 7, 8
	ret
	.cfi_endproc
.LFE3741:
	.size	_ZNSt12_Vector_baseIN7HashMapINSt7__cxx1112basic_stringIcSt11char_traitsIcESaIcEEEiSt4hashIS6_EE7ElementESaISA_EE12_Vector_implC2EOSD_, .-_ZNSt12_Vector_baseIN7HashMapINSt7__cxx1112basic_stringIcSt11char_traitsIcESaIcEEEiSt4hashIS6_EE7ElementESaISA_EE12_Vector_implC2EOSD_
	.weak	_ZNSt12_Vector_baseIN7HashMapINSt7__cxx1112basic_stringIcSt11char_traitsIcESaIcEEEiSt4hashIS6_EE7ElementESaISA_EE12_Vector_implC1EOSD_
	.set	_ZNSt12_Vector_baseIN7HashMapINSt7__cxx1112basic_stringIcSt11char_traitsIcESaIcEEEiSt4hashIS6_EE7ElementESaISA_EE12_Vector_implC1EOSD_,_ZNSt12_Vector_baseIN7HashMapINSt7__cxx1112basic_stringIcSt11char_traitsIcESaIcEEEiSt4hashIS6_EE7ElementESaISA_EE12_Vector_implC2EOSD_
	.section	.text._ZNSt6vectorIN7HashMapINSt7__cxx1112basic_stringIcSt11char_traitsIcESaIcEEEiSt4hashIS6_EE7ElementESaISA_EE5beginEv,"axG",@progbits,_ZNSt6vectorIN7HashMapINSt7__cxx1112basic_stringIcSt11char_traitsIcESaIcEEEiSt4hashIS6_EE7ElementESaISA_EE5beginEv,comdat
	.align 2
	.weak	_ZNSt6vectorIN7HashMapINSt7__cxx1112basic_stringIcSt11char_traitsIcESaIcEEEiSt4hashIS6_EE7ElementESaISA_EE5beginEv
	.type	_ZNSt6vectorIN7HashMapINSt7__cxx1112basic_stringIcSt11char_traitsIcESaIcEEEiSt4hashIS6_EE7ElementESaISA_EE5beginEv, @function
_ZNSt6vectorIN7HashMapINSt7__cxx1112basic_stringIcSt11char_traitsIcESaIcEEEiSt4hashIS6_EE7ElementESaISA_EE5beginEv:
.LFB3743:
	.cfi_startproc
	pushq	%rbp
	.cfi_def_cfa_offset 16
	.cfi_offset 6, -16
	movq	%rsp, %rbp
	.cfi_def_cfa_register 6
	subq	$32, %rsp
	movq	%rdi, -24(%rbp)
	movq	%fs:40, %rax
	movq	%rax, -8(%rbp)
	xorl	%eax, %eax
	movq	-24(%rbp), %rdx
	leaq	-16(%rbp), %rax
	movq	%rdx, %rsi
	movq	%rax, %rdi
	call	_ZN9__gnu_cxx17__normal_iteratorIPN7HashMapINSt7__cxx1112basic_stringIcSt11char_traitsIcESaIcEEEiSt4hashIS7_EE7ElementESt6vectorISB_SaISB_EEEC1ERKSC_
	movq	-16(%rbp), %rax
	movq	-8(%rbp), %rcx
	xorq	%fs:40, %rcx
	je	.L234
	call	__stack_chk_fail@PLT
.L234:
	leave
	.cfi_def_cfa 7, 8
	ret
	.cfi_endproc
.LFE3743:
	.size	_ZNSt6vectorIN7HashMapINSt7__cxx1112basic_stringIcSt11char_traitsIcESaIcEEEiSt4hashIS6_EE7ElementESaISA_EE5beginEv, .-_ZNSt6vectorIN7HashMapINSt7__cxx1112basic_stringIcSt11char_traitsIcESaIcEEEiSt4hashIS6_EE7ElementESaISA_EE5beginEv
	.section	.text._ZNSt6vectorIN7HashMapINSt7__cxx1112basic_stringIcSt11char_traitsIcESaIcEEEiSt4hashIS6_EE7ElementESaISA_EE3endEv,"axG",@progbits,_ZNSt6vectorIN7HashMapINSt7__cxx1112basic_stringIcSt11char_traitsIcESaIcEEEiSt4hashIS6_EE7ElementESaISA_EE3endEv,comdat
	.align 2
	.weak	_ZNSt6vectorIN7HashMapINSt7__cxx1112basic_stringIcSt11char_traitsIcESaIcEEEiSt4hashIS6_EE7ElementESaISA_EE3endEv
	.type	_ZNSt6vectorIN7HashMapINSt7__cxx1112basic_stringIcSt11char_traitsIcESaIcEEEiSt4hashIS6_EE7ElementESaISA_EE3endEv, @function
_ZNSt6vectorIN7HashMapINSt7__cxx1112basic_stringIcSt11char_traitsIcESaIcEEEiSt4hashIS6_EE7ElementESaISA_EE3endEv:
.LFB3744:
	.cfi_startproc
	pushq	%rbp
	.cfi_def_cfa_offset 16
	.cfi_offset 6, -16
	movq	%rsp, %rbp
	.cfi_def_cfa_register 6
	subq	$32, %rsp
	movq	%rdi, -24(%rbp)
	movq	%fs:40, %rax
	movq	%rax, -8(%rbp)
	xorl	%eax, %eax
	movq	-24(%rbp), %rax
	leaq	8(%rax), %rdx
	leaq	-16(%rbp), %rax
	movq	%rdx, %rsi
	movq	%rax, %rdi
	call	_ZN9__gnu_cxx17__normal_iteratorIPN7HashMapINSt7__cxx1112basic_stringIcSt11char_traitsIcESaIcEEEiSt4hashIS7_EE7ElementESt6vectorISB_SaISB_EEEC1ERKSC_
	movq	-16(%rbp), %rax
	movq	-8(%rbp), %rcx
	xorq	%fs:40, %rcx
	je	.L237
	call	__stack_chk_fail@PLT
.L237:
	leave
	.cfi_def_cfa 7, 8
	ret
	.cfi_endproc
.LFE3744:
	.size	_ZNSt6vectorIN7HashMapINSt7__cxx1112basic_stringIcSt11char_traitsIcESaIcEEEiSt4hashIS6_EE7ElementESaISA_EE3endEv, .-_ZNSt6vectorIN7HashMapINSt7__cxx1112basic_stringIcSt11char_traitsIcESaIcEEEiSt4hashIS6_EE7ElementESaISA_EE3endEv
	.section	.text._ZN9__gnu_cxxneIPN7HashMapINSt7__cxx1112basic_stringIcSt11char_traitsIcESaIcEEEiSt4hashIS7_EE7ElementESt6vectorISB_SaISB_EEEEbRKNS_17__normal_iteratorIT_T0_EESL_,"axG",@progbits,_ZN9__gnu_cxxneIPN7HashMapINSt7__cxx1112basic_stringIcSt11char_traitsIcESaIcEEEiSt4hashIS7_EE7ElementESt6vectorISB_SaISB_EEEEbRKNS_17__normal_iteratorIT_T0_EESL_,comdat
	.weak	_ZN9__gnu_cxxneIPN7HashMapINSt7__cxx1112basic_stringIcSt11char_traitsIcESaIcEEEiSt4hashIS7_EE7ElementESt6vectorISB_SaISB_EEEEbRKNS_17__normal_iteratorIT_T0_EESL_
	.type	_ZN9__gnu_cxxneIPN7HashMapINSt7__cxx1112basic_stringIcSt11char_traitsIcESaIcEEEiSt4hashIS7_EE7ElementESt6vectorISB_SaISB_EEEEbRKNS_17__normal_iteratorIT_T0_EESL_, @function
_ZN9__gnu_cxxneIPN7HashMapINSt7__cxx1112basic_stringIcSt11char_traitsIcESaIcEEEiSt4hashIS7_EE7ElementESt6vectorISB_SaISB_EEEEbRKNS_17__normal_iteratorIT_T0_EESL_:
.LFB3745:
	.cfi_startproc
	pushq	%rbp
	.cfi_def_cfa_offset 16
	.cfi_offset 6, -16
	movq	%rsp, %rbp
	.cfi_def_cfa_register 6
	pushq	%rbx
	subq	$24, %rsp
	.cfi_offset 3, -24
	movq	%rdi, -24(%rbp)
	movq	%rsi, -32(%rbp)
	movq	-24(%rbp), %rax
	movq	%rax, %rdi
	call	_ZNK9__gnu_cxx17__normal_iteratorIPN7HashMapINSt7__cxx1112basic_stringIcSt11char_traitsIcESaIcEEEiSt4hashIS7_EE7ElementESt6vectorISB_SaISB_EEE4baseEv
	movq	(%rax), %rbx
	movq	-32(%rbp), %rax
	movq	%rax, %rdi
	call	_ZNK9__gnu_cxx17__normal_iteratorIPN7HashMapINSt7__cxx1112basic_stringIcSt11char_traitsIcESaIcEEEiSt4hashIS7_EE7ElementESt6vectorISB_SaISB_EEE4baseEv
	movq	(%rax), %rax
	cmpq	%rax, %rbx
	setne	%al
	addq	$24, %rsp
	popq	%rbx
	popq	%rbp
	.cfi_def_cfa 7, 8
	ret
	.cfi_endproc
.LFE3745:
	.size	_ZN9__gnu_cxxneIPN7HashMapINSt7__cxx1112basic_stringIcSt11char_traitsIcESaIcEEEiSt4hashIS7_EE7ElementESt6vectorISB_SaISB_EEEEbRKNS_17__normal_iteratorIT_T0_EESL_, .-_ZN9__gnu_cxxneIPN7HashMapINSt7__cxx1112basic_stringIcSt11char_traitsIcESaIcEEEiSt4hashIS7_EE7ElementESt6vectorISB_SaISB_EEEEbRKNS_17__normal_iteratorIT_T0_EESL_
	.section	.text._ZN9__gnu_cxx17__normal_iteratorIPN7HashMapINSt7__cxx1112basic_stringIcSt11char_traitsIcESaIcEEEiSt4hashIS7_EE7ElementESt6vectorISB_SaISB_EEEppEv,"axG",@progbits,_ZN9__gnu_cxx17__normal_iteratorIPN7HashMapINSt7__cxx1112basic_stringIcSt11char_traitsIcESaIcEEEiSt4hashIS7_EE7ElementESt6vectorISB_SaISB_EEEppEv,comdat
	.align 2
	.weak	_ZN9__gnu_cxx17__normal_iteratorIPN7HashMapINSt7__cxx1112basic_stringIcSt11char_traitsIcESaIcEEEiSt4hashIS7_EE7ElementESt6vectorISB_SaISB_EEEppEv
	.type	_ZN9__gnu_cxx17__normal_iteratorIPN7HashMapINSt7__cxx1112basic_stringIcSt11char_traitsIcESaIcEEEiSt4hashIS7_EE7ElementESt6vectorISB_SaISB_EEEppEv, @function
_ZN9__gnu_cxx17__normal_iteratorIPN7HashMapINSt7__cxx1112basic_stringIcSt11char_traitsIcESaIcEEEiSt4hashIS7_EE7ElementESt6vectorISB_SaISB_EEEppEv:
.LFB3746:
	.cfi_startproc
	pushq	%rbp
	.cfi_def_cfa_offset 16
	.cfi_offset 6, -16
	movq	%rsp, %rbp
	.cfi_def_cfa_register 6
	movq	%rdi, -8(%rbp)
	movq	-8(%rbp), %rax
	movq	(%rax), %rax
	leaq	40(%rax), %rdx
	movq	-8(%rbp), %rax
	movq	%rdx, (%rax)
	movq	-8(%rbp), %rax
	popq	%rbp
	.cfi_def_cfa 7, 8
	ret
	.cfi_endproc
.LFE3746:
	.size	_ZN9__gnu_cxx17__normal_iteratorIPN7HashMapINSt7__cxx1112basic_stringIcSt11char_traitsIcESaIcEEEiSt4hashIS7_EE7ElementESt6vectorISB_SaISB_EEEppEv, .-_ZN9__gnu_cxx17__normal_iteratorIPN7HashMapINSt7__cxx1112basic_stringIcSt11char_traitsIcESaIcEEEiSt4hashIS7_EE7ElementESt6vectorISB_SaISB_EEEppEv
	.section	.text._ZNK9__gnu_cxx17__normal_iteratorIPN7HashMapINSt7__cxx1112basic_stringIcSt11char_traitsIcESaIcEEEiSt4hashIS7_EE7ElementESt6vectorISB_SaISB_EEEdeEv,"axG",@progbits,_ZNK9__gnu_cxx17__normal_iteratorIPN7HashMapINSt7__cxx1112basic_stringIcSt11char_traitsIcESaIcEEEiSt4hashIS7_EE7ElementESt6vectorISB_SaISB_EEEdeEv,comdat
	.align 2
	.weak	_ZNK9__gnu_cxx17__normal_iteratorIPN7HashMapINSt7__cxx1112basic_stringIcSt11char_traitsIcESaIcEEEiSt4hashIS7_EE7ElementESt6vectorISB_SaISB_EEEdeEv
	.type	_ZNK9__gnu_cxx17__normal_iteratorIPN7HashMapINSt7__cxx1112basic_stringIcSt11char_traitsIcESaIcEEEiSt4hashIS7_EE7ElementESt6vectorISB_SaISB_EEEdeEv, @function
_ZNK9__gnu_cxx17__normal_iteratorIPN7HashMapINSt7__cxx1112basic_stringIcSt11char_traitsIcESaIcEEEiSt4hashIS7_EE7ElementESt6vectorISB_SaISB_EEEdeEv:
.LFB3747:
	.cfi_startproc
	pushq	%rbp
	.cfi_def_cfa_offset 16
	.cfi_offset 6, -16
	movq	%rsp, %rbp
	.cfi_def_cfa_register 6
	movq	%rdi, -8(%rbp)
	movq	-8(%rbp), %rax
	movq	(%rax), %rax
	popq	%rbp
	.cfi_def_cfa 7, 8
	ret
	.cfi_endproc
.LFE3747:
	.size	_ZNK9__gnu_cxx17__normal_iteratorIPN7HashMapINSt7__cxx1112basic_stringIcSt11char_traitsIcESaIcEEEiSt4hashIS7_EE7ElementESt6vectorISB_SaISB_EEEdeEv, .-_ZNK9__gnu_cxx17__normal_iteratorIPN7HashMapINSt7__cxx1112basic_stringIcSt11char_traitsIcESaIcEEEiSt4hashIS7_EE7ElementESt6vectorISB_SaISB_EEEdeEv
	.section	.text._ZNK7HashMapINSt7__cxx1112basic_stringIcSt11char_traitsIcESaIcEEEiSt4hashIS5_EE7Element5EmptyEv,"axG",@progbits,_ZNK7HashMapINSt7__cxx1112basic_stringIcSt11char_traitsIcESaIcEEEiSt4hashIS5_EE7Element5EmptyEv,comdat
	.align 2
	.weak	_ZNK7HashMapINSt7__cxx1112basic_stringIcSt11char_traitsIcESaIcEEEiSt4hashIS5_EE7Element5EmptyEv
	.type	_ZNK7HashMapINSt7__cxx1112basic_stringIcSt11char_traitsIcESaIcEEEiSt4hashIS5_EE7Element5EmptyEv, @function
_ZNK7HashMapINSt7__cxx1112basic_stringIcSt11char_traitsIcESaIcEEEiSt4hashIS5_EE7Element5EmptyEv:
.LFB3748:
	.cfi_startproc
	pushq	%rbp
	.cfi_def_cfa_offset 16
	.cfi_offset 6, -16
	movq	%rsp, %rbp
	.cfi_def_cfa_register 6
	movq	%rdi, -8(%rbp)
	movq	-8(%rbp), %rax
	movzbl	37(%rax), %eax
	popq	%rbp
	.cfi_def_cfa 7, 8
	ret
	.cfi_endproc
.LFE3748:
	.size	_ZNK7HashMapINSt7__cxx1112basic_stringIcSt11char_traitsIcESaIcEEEiSt4hashIS5_EE7Element5EmptyEv, .-_ZNK7HashMapINSt7__cxx1112basic_stringIcSt11char_traitsIcESaIcEEEiSt4hashIS5_EE7Element5EmptyEv
	.section	.text._ZN5MaybeIiEC2IJRiEEEDpOT_,"axG",@progbits,_ZN5MaybeIiEC5IJRiEEEDpOT_,comdat
	.align 2
	.weak	_ZN5MaybeIiEC2IJRiEEEDpOT_
	.type	_ZN5MaybeIiEC2IJRiEEEDpOT_, @function
_ZN5MaybeIiEC2IJRiEEEDpOT_:
.LFB3750:
	.cfi_startproc
	pushq	%rbp
	.cfi_def_cfa_offset 16
	.cfi_offset 6, -16
	movq	%rsp, %rbp
	.cfi_def_cfa_register 6
	subq	$16, %rsp
	movq	%rdi, -8(%rbp)
	movq	%rsi, -16(%rbp)
	movq	-8(%rbp), %rax
	movb	$1, (%rax)
	movq	-16(%rbp), %rax
	movq	%rax, %rdi
	call	_ZSt7forwardIRiEOT_RNSt16remove_referenceIS1_E4typeE
	movl	(%rax), %edx
	movq	-8(%rbp), %rax
	movl	%edx, 8(%rax)
	nop
	leave
	.cfi_def_cfa 7, 8
	ret
	.cfi_endproc
.LFE3750:
	.size	_ZN5MaybeIiEC2IJRiEEEDpOT_, .-_ZN5MaybeIiEC2IJRiEEEDpOT_
	.weak	_ZN5MaybeIiEC1IJRiEEEDpOT_
	.set	_ZN5MaybeIiEC1IJRiEEEDpOT_,_ZN5MaybeIiEC2IJRiEEEDpOT_
	.section	.text._ZN5MaybeIiEC2ESt10error_code,"axG",@progbits,_ZN5MaybeIiEC5ESt10error_code,comdat
	.align 2
	.weak	_ZN5MaybeIiEC2ESt10error_code
	.type	_ZN5MaybeIiEC2ESt10error_code, @function
_ZN5MaybeIiEC2ESt10error_code:
.LFB3753:
	.cfi_startproc
	pushq	%rbp
	.cfi_def_cfa_offset 16
	.cfi_offset 6, -16
	movq	%rsp, %rbp
	.cfi_def_cfa_register 6
	movq	%rdi, -8(%rbp)
	movq	%rdx, %rcx
	movq	%rsi, %rax
	movq	%rdi, %rdx
	movq	%rcx, %rdx
	movq	%rax, -32(%rbp)
	movq	%rdx, -24(%rbp)
	movq	-8(%rbp), %rax
	movb	$0, (%rax)
	movq	-8(%rbp), %rcx
	movq	-32(%rbp), %rax
	movq	-24(%rbp), %rdx
	movq	%rax, 8(%rcx)
	movq	%rdx, 16(%rcx)
	nop
	popq	%rbp
	.cfi_def_cfa 7, 8
	ret
	.cfi_endproc
.LFE3753:
	.size	_ZN5MaybeIiEC2ESt10error_code, .-_ZN5MaybeIiEC2ESt10error_code
	.weak	_ZN5MaybeIiEC1ESt10error_code
	.set	_ZN5MaybeIiEC1ESt10error_code,_ZN5MaybeIiEC2ESt10error_code
	.section	.text._ZN9__gnu_cxx13new_allocatorIN7HashMapINSt7__cxx1112basic_stringIcSt11char_traitsIcESaIcEEEiSt4hashIS7_EE7ElementEEC2Ev,"axG",@progbits,_ZN9__gnu_cxx13new_allocatorIN7HashMapINSt7__cxx1112basic_stringIcSt11char_traitsIcESaIcEEEiSt4hashIS7_EE7ElementEEC5Ev,comdat
	.align 2
	.weak	_ZN9__gnu_cxx13new_allocatorIN7HashMapINSt7__cxx1112basic_stringIcSt11char_traitsIcESaIcEEEiSt4hashIS7_EE7ElementEEC2Ev
	.type	_ZN9__gnu_cxx13new_allocatorIN7HashMapINSt7__cxx1112basic_stringIcSt11char_traitsIcESaIcEEEiSt4hashIS7_EE7ElementEEC2Ev, @function
_ZN9__gnu_cxx13new_allocatorIN7HashMapINSt7__cxx1112basic_stringIcSt11char_traitsIcESaIcEEEiSt4hashIS7_EE7ElementEEC2Ev:
.LFB3793:
	.cfi_startproc
	pushq	%rbp
	.cfi_def_cfa_offset 16
	.cfi_offset 6, -16
	movq	%rsp, %rbp
	.cfi_def_cfa_register 6
	movq	%rdi, -8(%rbp)
	nop
	popq	%rbp
	.cfi_def_cfa 7, 8
	ret
	.cfi_endproc
.LFE3793:
	.size	_ZN9__gnu_cxx13new_allocatorIN7HashMapINSt7__cxx1112basic_stringIcSt11char_traitsIcESaIcEEEiSt4hashIS7_EE7ElementEEC2Ev, .-_ZN9__gnu_cxx13new_allocatorIN7HashMapINSt7__cxx1112basic_stringIcSt11char_traitsIcESaIcEEEiSt4hashIS7_EE7ElementEEC2Ev
	.weak	_ZN9__gnu_cxx13new_allocatorIN7HashMapINSt7__cxx1112basic_stringIcSt11char_traitsIcESaIcEEEiSt4hashIS7_EE7ElementEEC1Ev
	.set	_ZN9__gnu_cxx13new_allocatorIN7HashMapINSt7__cxx1112basic_stringIcSt11char_traitsIcESaIcEEEiSt4hashIS7_EE7ElementEEC1Ev,_ZN9__gnu_cxx13new_allocatorIN7HashMapINSt7__cxx1112basic_stringIcSt11char_traitsIcESaIcEEEiSt4hashIS7_EE7ElementEEC2Ev
	.section	.text._ZNSt16allocator_traitsISaIN7HashMapINSt7__cxx1112basic_stringIcSt11char_traitsIcESaIcEEEiSt4hashIS6_EE7ElementEEE10deallocateERSB_PSA_m,"axG",@progbits,_ZNSt16allocator_traitsISaIN7HashMapINSt7__cxx1112basic_stringIcSt11char_traitsIcESaIcEEEiSt4hashIS6_EE7ElementEEE10deallocateERSB_PSA_m,comdat
	.weak	_ZNSt16allocator_traitsISaIN7HashMapINSt7__cxx1112basic_stringIcSt11char_traitsIcESaIcEEEiSt4hashIS6_EE7ElementEEE10deallocateERSB_PSA_m
	.type	_ZNSt16allocator_traitsISaIN7HashMapINSt7__cxx1112basic_stringIcSt11char_traitsIcESaIcEEEiSt4hashIS6_EE7ElementEEE10deallocateERSB_PSA_m, @function
_ZNSt16allocator_traitsISaIN7HashMapINSt7__cxx1112basic_stringIcSt11char_traitsIcESaIcEEEiSt4hashIS6_EE7ElementEEE10deallocateERSB_PSA_m:
.LFB3795:
	.cfi_startproc
	pushq	%rbp
	.cfi_def_cfa_offset 16
	.cfi_offset 6, -16
	movq	%rsp, %rbp
	.cfi_def_cfa_register 6
	subq	$32, %rsp
	movq	%rdi, -8(%rbp)
	movq	%rsi, -16(%rbp)
	movq	%rdx, -24(%rbp)
	movq	-24(%rbp), %rdx
	movq	-16(%rbp), %rcx
	movq	-8(%rbp), %rax
	movq	%rcx, %rsi
	movq	%rax, %rdi
	call	_ZN9__gnu_cxx13new_allocatorIN7HashMapINSt7__cxx1112basic_stringIcSt11char_traitsIcESaIcEEEiSt4hashIS7_EE7ElementEE10deallocateEPSB_m
	nop
	leave
	.cfi_def_cfa 7, 8
	ret
	.cfi_endproc
.LFE3795:
	.size	_ZNSt16allocator_traitsISaIN7HashMapINSt7__cxx1112basic_stringIcSt11char_traitsIcESaIcEEEiSt4hashIS6_EE7ElementEEE10deallocateERSB_PSA_m, .-_ZNSt16allocator_traitsISaIN7HashMapINSt7__cxx1112basic_stringIcSt11char_traitsIcESaIcEEEiSt4hashIS6_EE7ElementEEE10deallocateERSB_PSA_m
	.section	.text._ZNKSt6vectorIN7HashMapINSt7__cxx1112basic_stringIcSt11char_traitsIcESaIcEEEiSt4hashIS6_EE7ElementESaISA_EE8max_sizeEv,"axG",@progbits,_ZNKSt6vectorIN7HashMapINSt7__cxx1112basic_stringIcSt11char_traitsIcESaIcEEEiSt4hashIS6_EE7ElementESaISA_EE8max_sizeEv,comdat
	.align 2
	.weak	_ZNKSt6vectorIN7HashMapINSt7__cxx1112basic_stringIcSt11char_traitsIcESaIcEEEiSt4hashIS6_EE7ElementESaISA_EE8max_sizeEv
	.type	_ZNKSt6vectorIN7HashMapINSt7__cxx1112basic_stringIcSt11char_traitsIcESaIcEEEiSt4hashIS6_EE7ElementESaISA_EE8max_sizeEv, @function
_ZNKSt6vectorIN7HashMapINSt7__cxx1112basic_stringIcSt11char_traitsIcESaIcEEEiSt4hashIS6_EE7ElementESaISA_EE8max_sizeEv:
.LFB3796:
	.cfi_startproc
	pushq	%rbp
	.cfi_def_cfa_offset 16
	.cfi_offset 6, -16
	movq	%rsp, %rbp
	.cfi_def_cfa_register 6
	subq	$16, %rsp
	movq	%rdi, -8(%rbp)
	movq	-8(%rbp), %rax
	movq	%rax, %rdi
	call	_ZNKSt12_Vector_baseIN7HashMapINSt7__cxx1112basic_stringIcSt11char_traitsIcESaIcEEEiSt4hashIS6_EE7ElementESaISA_EE19_M_get_Tp_allocatorEv
	movq	%rax, %rdi
	call	_ZNSt6vectorIN7HashMapINSt7__cxx1112basic_stringIcSt11char_traitsIcESaIcEEEiSt4hashIS6_EE7ElementESaISA_EE11_S_max_sizeERKSB_
	leave
	.cfi_def_cfa 7, 8
	ret
	.cfi_endproc
.LFE3796:
	.size	_ZNKSt6vectorIN7HashMapINSt7__cxx1112basic_stringIcSt11char_traitsIcESaIcEEEiSt4hashIS6_EE7ElementESaISA_EE8max_sizeEv, .-_ZNKSt6vectorIN7HashMapINSt7__cxx1112basic_stringIcSt11char_traitsIcESaIcEEEiSt4hashIS6_EE7ElementESaISA_EE8max_sizeEv
	.section	.text._ZSt27__uninitialized_default_n_aIPN7HashMapINSt7__cxx1112basic_stringIcSt11char_traitsIcESaIcEEEiSt4hashIS6_EE7ElementEmSA_ET_SC_T0_RSaIT1_E,"axG",@progbits,_ZSt27__uninitialized_default_n_aIPN7HashMapINSt7__cxx1112basic_stringIcSt11char_traitsIcESaIcEEEiSt4hashIS6_EE7ElementEmSA_ET_SC_T0_RSaIT1_E,comdat
	.weak	_ZSt27__uninitialized_default_n_aIPN7HashMapINSt7__cxx1112basic_stringIcSt11char_traitsIcESaIcEEEiSt4hashIS6_EE7ElementEmSA_ET_SC_T0_RSaIT1_E
	.type	_ZSt27__uninitialized_default_n_aIPN7HashMapINSt7__cxx1112basic_stringIcSt11char_traitsIcESaIcEEEiSt4hashIS6_EE7ElementEmSA_ET_SC_T0_RSaIT1_E, @function
_ZSt27__uninitialized_default_n_aIPN7HashMapINSt7__cxx1112basic_stringIcSt11char_traitsIcESaIcEEEiSt4hashIS6_EE7ElementEmSA_ET_SC_T0_RSaIT1_E:
.LFB3797:
	.cfi_startproc
	pushq	%rbp
	.cfi_def_cfa_offset 16
	.cfi_offset 6, -16
	movq	%rsp, %rbp
	.cfi_def_cfa_register 6
	subq	$32, %rsp
	movq	%rdi, -8(%rbp)
	movq	%rsi, -16(%rbp)
	movq	%rdx, -24(%rbp)
	movq	-16(%rbp), %rdx
	movq	-8(%rbp), %rax
	movq	%rdx, %rsi
	movq	%rax, %rdi
	call	_ZSt25__uninitialized_default_nIPN7HashMapINSt7__cxx1112basic_stringIcSt11char_traitsIcESaIcEEEiSt4hashIS6_EE7ElementEmET_SC_T0_
	leave
	.cfi_def_cfa 7, 8
	ret
	.cfi_endproc
.LFE3797:
	.size	_ZSt27__uninitialized_default_n_aIPN7HashMapINSt7__cxx1112basic_stringIcSt11char_traitsIcESaIcEEEiSt4hashIS6_EE7ElementEmSA_ET_SC_T0_RSaIT1_E, .-_ZSt27__uninitialized_default_n_aIPN7HashMapINSt7__cxx1112basic_stringIcSt11char_traitsIcESaIcEEEiSt4hashIS6_EE7ElementEmSA_ET_SC_T0_RSaIT1_E
	.section	.text._ZNKSt6vectorIN7HashMapINSt7__cxx1112basic_stringIcSt11char_traitsIcESaIcEEEiSt4hashIS6_EE7ElementESaISA_EE12_M_check_lenEmPKc,"axG",@progbits,_ZNKSt6vectorIN7HashMapINSt7__cxx1112basic_stringIcSt11char_traitsIcESaIcEEEiSt4hashIS6_EE7ElementESaISA_EE12_M_check_lenEmPKc,comdat
	.align 2
	.weak	_ZNKSt6vectorIN7HashMapINSt7__cxx1112basic_stringIcSt11char_traitsIcESaIcEEEiSt4hashIS6_EE7ElementESaISA_EE12_M_check_lenEmPKc
	.type	_ZNKSt6vectorIN7HashMapINSt7__cxx1112basic_stringIcSt11char_traitsIcESaIcEEEiSt4hashIS6_EE7ElementESaISA_EE12_M_check_lenEmPKc, @function
_ZNKSt6vectorIN7HashMapINSt7__cxx1112basic_stringIcSt11char_traitsIcESaIcEEEiSt4hashIS6_EE7ElementESaISA_EE12_M_check_lenEmPKc:
.LFB3798:
	.cfi_startproc
	pushq	%rbp
	.cfi_def_cfa_offset 16
	.cfi_offset 6, -16
	movq	%rsp, %rbp
	.cfi_def_cfa_register 6
	pushq	%rbx
	subq	$72, %rsp
	.cfi_offset 3, -24
	movq	%rdi, -56(%rbp)
	movq	%rsi, -64(%rbp)
	movq	%rdx, -72(%rbp)
	movq	%fs:40, %rax
	movq	%rax, -24(%rbp)
	xorl	%eax, %eax
	movq	-56(%rbp), %rax
	movq	%rax, %rdi
	call	_ZNKSt6vectorIN7HashMapINSt7__cxx1112basic_stringIcSt11char_traitsIcESaIcEEEiSt4hashIS6_EE7ElementESaISA_EE8max_sizeEv
	movq	%rax, %rbx
	movq	-56(%rbp), %rax
	movq	%rax, %rdi
	call	_ZNKSt6vectorIN7HashMapINSt7__cxx1112basic_stringIcSt11char_traitsIcESaIcEEEiSt4hashIS6_EE7ElementESaISA_EE4sizeEv
	subq	%rax, %rbx
	movq	%rbx, %rdx
	movq	-64(%rbp), %rax
	cmpq	%rax, %rdx
	setb	%al
	testb	%al, %al
	je	.L255
	movq	-72(%rbp), %rax
	movq	%rax, %rdi
	call	_ZSt20__throw_length_errorPKc@PLT
.L255:
	movq	-56(%rbp), %rax
	movq	%rax, %rdi
	call	_ZNKSt6vectorIN7HashMapINSt7__cxx1112basic_stringIcSt11char_traitsIcESaIcEEEiSt4hashIS6_EE7ElementESaISA_EE4sizeEv
	movq	%rax, %rbx
	movq	-56(%rbp), %rax
	movq	%rax, %rdi
	call	_ZNKSt6vectorIN7HashMapINSt7__cxx1112basic_stringIcSt11char_traitsIcESaIcEEEiSt4hashIS6_EE7ElementESaISA_EE4sizeEv
	movq	%rax, -40(%rbp)
	leaq	-64(%rbp), %rdx
	leaq	-40(%rbp), %rax
	movq	%rdx, %rsi
	movq	%rax, %rdi
	call	_ZSt3maxImERKT_S2_S2_
	movq	(%rax), %rax
	addq	%rbx, %rax
	movq	%rax, -32(%rbp)
	movq	-56(%rbp), %rax
	movq	%rax, %rdi
	call	_ZNKSt6vectorIN7HashMapINSt7__cxx1112basic_stringIcSt11char_traitsIcESaIcEEEiSt4hashIS6_EE7ElementESaISA_EE4sizeEv
	cmpq	%rax, -32(%rbp)
	jb	.L256
	movq	-56(%rbp), %rax
	movq	%rax, %rdi
	call	_ZNKSt6vectorIN7HashMapINSt7__cxx1112basic_stringIcSt11char_traitsIcESaIcEEEiSt4hashIS6_EE7ElementESaISA_EE8max_sizeEv
	cmpq	%rax, -32(%rbp)
	jbe	.L257
.L256:
	movq	-56(%rbp), %rax
	movq	%rax, %rdi
	call	_ZNKSt6vectorIN7HashMapINSt7__cxx1112basic_stringIcSt11char_traitsIcESaIcEEEiSt4hashIS6_EE7ElementESaISA_EE8max_sizeEv
	jmp	.L258
.L257:
	movq	-32(%rbp), %rax
.L258:
	movq	-24(%rbp), %rcx
	xorq	%fs:40, %rcx
	je	.L260
	call	__stack_chk_fail@PLT
.L260:
	addq	$72, %rsp
	popq	%rbx
	popq	%rbp
	.cfi_def_cfa 7, 8
	ret
	.cfi_endproc
.LFE3798:
	.size	_ZNKSt6vectorIN7HashMapINSt7__cxx1112basic_stringIcSt11char_traitsIcESaIcEEEiSt4hashIS6_EE7ElementESaISA_EE12_M_check_lenEmPKc, .-_ZNKSt6vectorIN7HashMapINSt7__cxx1112basic_stringIcSt11char_traitsIcESaIcEEEiSt4hashIS6_EE7ElementESaISA_EE12_M_check_lenEmPKc
	.section	.text._ZNSt12_Vector_baseIN7HashMapINSt7__cxx1112basic_stringIcSt11char_traitsIcESaIcEEEiSt4hashIS6_EE7ElementESaISA_EE11_M_allocateEm,"axG",@progbits,_ZNSt12_Vector_baseIN7HashMapINSt7__cxx1112basic_stringIcSt11char_traitsIcESaIcEEEiSt4hashIS6_EE7ElementESaISA_EE11_M_allocateEm,comdat
	.align 2
	.weak	_ZNSt12_Vector_baseIN7HashMapINSt7__cxx1112basic_stringIcSt11char_traitsIcESaIcEEEiSt4hashIS6_EE7ElementESaISA_EE11_M_allocateEm
	.type	_ZNSt12_Vector_baseIN7HashMapINSt7__cxx1112basic_stringIcSt11char_traitsIcESaIcEEEiSt4hashIS6_EE7ElementESaISA_EE11_M_allocateEm, @function
_ZNSt12_Vector_baseIN7HashMapINSt7__cxx1112basic_stringIcSt11char_traitsIcESaIcEEEiSt4hashIS6_EE7ElementESaISA_EE11_M_allocateEm:
.LFB3799:
	.cfi_startproc
	pushq	%rbp
	.cfi_def_cfa_offset 16
	.cfi_offset 6, -16
	movq	%rsp, %rbp
	.cfi_def_cfa_register 6
	subq	$16, %rsp
	movq	%rdi, -8(%rbp)
	movq	%rsi, -16(%rbp)
	cmpq	$0, -16(%rbp)
	je	.L262
	movq	-8(%rbp), %rax
	movq	-16(%rbp), %rdx
	movq	%rdx, %rsi
	movq	%rax, %rdi
	call	_ZNSt16allocator_traitsISaIN7HashMapINSt7__cxx1112basic_stringIcSt11char_traitsIcESaIcEEEiSt4hashIS6_EE7ElementEEE8allocateERSB_m
	jmp	.L264
.L262:
	movl	$0, %eax
.L264:
	leave
	.cfi_def_cfa 7, 8
	ret
	.cfi_endproc
.LFE3799:
	.size	_ZNSt12_Vector_baseIN7HashMapINSt7__cxx1112basic_stringIcSt11char_traitsIcESaIcEEEiSt4hashIS6_EE7ElementESaISA_EE11_M_allocateEm, .-_ZNSt12_Vector_baseIN7HashMapINSt7__cxx1112basic_stringIcSt11char_traitsIcESaIcEEEiSt4hashIS6_EE7ElementESaISA_EE11_M_allocateEm
	.section	.text._ZNSt6vectorIN7HashMapINSt7__cxx1112basic_stringIcSt11char_traitsIcESaIcEEEiSt4hashIS6_EE7ElementESaISA_EE11_S_relocateEPSA_SD_SD_RSB_,"axG",@progbits,_ZNSt6vectorIN7HashMapINSt7__cxx1112basic_stringIcSt11char_traitsIcESaIcEEEiSt4hashIS6_EE7ElementESaISA_EE11_S_relocateEPSA_SD_SD_RSB_,comdat
	.weak	_ZNSt6vectorIN7HashMapINSt7__cxx1112basic_stringIcSt11char_traitsIcESaIcEEEiSt4hashIS6_EE7ElementESaISA_EE11_S_relocateEPSA_SD_SD_RSB_
	.type	_ZNSt6vectorIN7HashMapINSt7__cxx1112basic_stringIcSt11char_traitsIcESaIcEEEiSt4hashIS6_EE7ElementESaISA_EE11_S_relocateEPSA_SD_SD_RSB_, @function
_ZNSt6vectorIN7HashMapINSt7__cxx1112basic_stringIcSt11char_traitsIcESaIcEEEiSt4hashIS6_EE7ElementESaISA_EE11_S_relocateEPSA_SD_SD_RSB_:
.LFB3800:
	.cfi_startproc
	pushq	%rbp
	.cfi_def_cfa_offset 16
	.cfi_offset 6, -16
	movq	%rsp, %rbp
	.cfi_def_cfa_register 6
	subq	$48, %rsp
	movq	%rdi, -24(%rbp)
	movq	%rsi, -32(%rbp)
	movq	%rdx, -40(%rbp)
	movq	%rcx, -48(%rbp)
	movq	%fs:40, %rax
	movq	%rax, -8(%rbp)
	xorl	%eax, %eax
	movq	-48(%rbp), %rcx
	movq	-40(%rbp), %rdx
	movq	-32(%rbp), %rsi
	movq	-24(%rbp), %rax
	movq	%rax, %rdi
	call	_ZNSt6vectorIN7HashMapINSt7__cxx1112basic_stringIcSt11char_traitsIcESaIcEEEiSt4hashIS6_EE7ElementESaISA_EE14_S_do_relocateEPSA_SD_SD_RSB_St17integral_constantIbLb1EE
	movq	-8(%rbp), %rdi
	xorq	%fs:40, %rdi
	je	.L267
	call	__stack_chk_fail@PLT
.L267:
	leave
	.cfi_def_cfa 7, 8
	ret
	.cfi_endproc
.LFE3800:
	.size	_ZNSt6vectorIN7HashMapINSt7__cxx1112basic_stringIcSt11char_traitsIcESaIcEEEiSt4hashIS6_EE7ElementESaISA_EE11_S_relocateEPSA_SD_SD_RSB_, .-_ZNSt6vectorIN7HashMapINSt7__cxx1112basic_stringIcSt11char_traitsIcESaIcEEEiSt4hashIS6_EE7ElementESaISA_EE11_S_relocateEPSA_SD_SD_RSB_
	.section	.text._ZNSt12_Destroy_auxILb0EE9__destroyIPN7HashMapINSt7__cxx1112basic_stringIcSt11char_traitsIcESaIcEEEiSt4hashIS8_EE7ElementEEEvT_SE_,"axG",@progbits,_ZNSt12_Destroy_auxILb0EE9__destroyIPN7HashMapINSt7__cxx1112basic_stringIcSt11char_traitsIcESaIcEEEiSt4hashIS8_EE7ElementEEEvT_SE_,comdat
	.weak	_ZNSt12_Destroy_auxILb0EE9__destroyIPN7HashMapINSt7__cxx1112basic_stringIcSt11char_traitsIcESaIcEEEiSt4hashIS8_EE7ElementEEEvT_SE_
	.type	_ZNSt12_Destroy_auxILb0EE9__destroyIPN7HashMapINSt7__cxx1112basic_stringIcSt11char_traitsIcESaIcEEEiSt4hashIS8_EE7ElementEEEvT_SE_, @function
_ZNSt12_Destroy_auxILb0EE9__destroyIPN7HashMapINSt7__cxx1112basic_stringIcSt11char_traitsIcESaIcEEEiSt4hashIS8_EE7ElementEEEvT_SE_:
.LFB3801:
	.cfi_startproc
	pushq	%rbp
	.cfi_def_cfa_offset 16
	.cfi_offset 6, -16
	movq	%rsp, %rbp
	.cfi_def_cfa_register 6
	subq	$16, %rsp
	movq	%rdi, -8(%rbp)
	movq	%rsi, -16(%rbp)
.L270:
	movq	-8(%rbp), %rax
	cmpq	-16(%rbp), %rax
	je	.L271
	movq	-8(%rbp), %rax
	movq	%rax, %rdi
	call	_ZSt11__addressofIN7HashMapINSt7__cxx1112basic_stringIcSt11char_traitsIcESaIcEEEiSt4hashIS6_EE7ElementEEPT_RSB_
	movq	%rax, %rdi
	call	_ZSt8_DestroyIN7HashMapINSt7__cxx1112basic_stringIcSt11char_traitsIcESaIcEEEiSt4hashIS6_EE7ElementEEvPT_
	addq	$40, -8(%rbp)
	jmp	.L270
.L271:
	nop
	leave
	.cfi_def_cfa 7, 8
	ret
	.cfi_endproc
.LFE3801:
	.size	_ZNSt12_Destroy_auxILb0EE9__destroyIPN7HashMapINSt7__cxx1112basic_stringIcSt11char_traitsIcESaIcEEEiSt4hashIS8_EE7ElementEEEvT_SE_, .-_ZNSt12_Destroy_auxILb0EE9__destroyIPN7HashMapINSt7__cxx1112basic_stringIcSt11char_traitsIcESaIcEEEiSt4hashIS8_EE7ElementEEEvT_SE_
	.section	.text._ZN9__gnu_cxx13new_allocatorINSt7__cxx1112basic_stringIcSt11char_traitsIcESaIcEEEE10deallocateEPS6_m,"axG",@progbits,_ZN9__gnu_cxx13new_allocatorINSt7__cxx1112basic_stringIcSt11char_traitsIcESaIcEEEE10deallocateEPS6_m,comdat
	.align 2
	.weak	_ZN9__gnu_cxx13new_allocatorINSt7__cxx1112basic_stringIcSt11char_traitsIcESaIcEEEE10deallocateEPS6_m
	.type	_ZN9__gnu_cxx13new_allocatorINSt7__cxx1112basic_stringIcSt11char_traitsIcESaIcEEEE10deallocateEPS6_m, @function
_ZN9__gnu_cxx13new_allocatorINSt7__cxx1112basic_stringIcSt11char_traitsIcESaIcEEEE10deallocateEPS6_m:
.LFB3802:
	.cfi_startproc
	pushq	%rbp
	.cfi_def_cfa_offset 16
	.cfi_offset 6, -16
	movq	%rsp, %rbp
	.cfi_def_cfa_register 6
	subq	$32, %rsp
	movq	%rdi, -8(%rbp)
	movq	%rsi, -16(%rbp)
	movq	%rdx, -24(%rbp)
	movq	-16(%rbp), %rax
	movq	%rax, %rdi
	call	_ZdlPv@PLT
	leave
	.cfi_def_cfa 7, 8
	ret
	.cfi_endproc
.LFE3802:
	.size	_ZN9__gnu_cxx13new_allocatorINSt7__cxx1112basic_stringIcSt11char_traitsIcESaIcEEEE10deallocateEPS6_m, .-_ZN9__gnu_cxx13new_allocatorINSt7__cxx1112basic_stringIcSt11char_traitsIcESaIcEEEE10deallocateEPS6_m
	.section	.text._ZNSt12_Destroy_auxILb0EE9__destroyIPNSt7__cxx1112basic_stringIcSt11char_traitsIcESaIcEEEEEvT_S9_,"axG",@progbits,_ZNSt12_Destroy_auxILb0EE9__destroyIPNSt7__cxx1112basic_stringIcSt11char_traitsIcESaIcEEEEEvT_S9_,comdat
	.weak	_ZNSt12_Destroy_auxILb0EE9__destroyIPNSt7__cxx1112basic_stringIcSt11char_traitsIcESaIcEEEEEvT_S9_
	.type	_ZNSt12_Destroy_auxILb0EE9__destroyIPNSt7__cxx1112basic_stringIcSt11char_traitsIcESaIcEEEEEvT_S9_, @function
_ZNSt12_Destroy_auxILb0EE9__destroyIPNSt7__cxx1112basic_stringIcSt11char_traitsIcESaIcEEEEEvT_S9_:
.LFB3803:
	.cfi_startproc
	pushq	%rbp
	.cfi_def_cfa_offset 16
	.cfi_offset 6, -16
	movq	%rsp, %rbp
	.cfi_def_cfa_register 6
	subq	$16, %rsp
	movq	%rdi, -8(%rbp)
	movq	%rsi, -16(%rbp)
.L276:
	movq	-8(%rbp), %rax
	cmpq	-16(%rbp), %rax
	je	.L277
	movq	-8(%rbp), %rax
	movq	%rax, %rdi
	call	_ZSt11__addressofINSt7__cxx1112basic_stringIcSt11char_traitsIcESaIcEEEEPT_RS6_
	movq	%rax, %rdi
	call	_ZSt8_DestroyINSt7__cxx1112basic_stringIcSt11char_traitsIcESaIcEEEEvPT_
	addq	$32, -8(%rbp)
	jmp	.L276
.L277:
	nop
	leave
	.cfi_def_cfa 7, 8
	ret
	.cfi_endproc
.LFE3803:
	.size	_ZNSt12_Destroy_auxILb0EE9__destroyIPNSt7__cxx1112basic_stringIcSt11char_traitsIcESaIcEEEEEvT_S9_, .-_ZNSt12_Destroy_auxILb0EE9__destroyIPNSt7__cxx1112basic_stringIcSt11char_traitsIcESaIcEEEEEvT_S9_
	.section	.text._ZNSt6vectorINSt7__cxx1112basic_stringIcSt11char_traitsIcESaIcEEESaIS5_EE11_S_max_sizeERKS6_,"axG",@progbits,_ZNSt6vectorINSt7__cxx1112basic_stringIcSt11char_traitsIcESaIcEEESaIS5_EE11_S_max_sizeERKS6_,comdat
	.weak	_ZNSt6vectorINSt7__cxx1112basic_stringIcSt11char_traitsIcESaIcEEESaIS5_EE11_S_max_sizeERKS6_
	.type	_ZNSt6vectorINSt7__cxx1112basic_stringIcSt11char_traitsIcESaIcEEESaIS5_EE11_S_max_sizeERKS6_, @function
_ZNSt6vectorINSt7__cxx1112basic_stringIcSt11char_traitsIcESaIcEEESaIS5_EE11_S_max_sizeERKS6_:
.LFB3804:
	.cfi_startproc
	pushq	%rbp
	.cfi_def_cfa_offset 16
	.cfi_offset 6, -16
	movq	%rsp, %rbp
	.cfi_def_cfa_register 6
	subq	$48, %rsp
	movq	%rdi, -40(%rbp)
	movq	%fs:40, %rax
	movq	%rax, -8(%rbp)
	xorl	%eax, %eax
	movabsq	$288230376151711743, %rax
	movq	%rax, -24(%rbp)
	movq	-40(%rbp), %rax
	movq	%rax, %rdi
	call	_ZNSt16allocator_traitsISaINSt7__cxx1112basic_stringIcSt11char_traitsIcESaIcEEEEE8max_sizeERKS6_
	movq	%rax, -16(%rbp)
	leaq	-16(%rbp), %rdx
	leaq	-24(%rbp), %rax
	movq	%rdx, %rsi
	movq	%rax, %rdi
	call	_ZSt3minImERKT_S2_S2_
	movq	(%rax), %rax
	movq	-8(%rbp), %rcx
	xorq	%fs:40, %rcx
	je	.L280
	call	__stack_chk_fail@PLT
.L280:
	leave
	.cfi_def_cfa 7, 8
	ret
	.cfi_endproc
.LFE3804:
	.size	_ZNSt6vectorINSt7__cxx1112basic_stringIcSt11char_traitsIcESaIcEEESaIS5_EE11_S_max_sizeERKS6_, .-_ZNSt6vectorINSt7__cxx1112basic_stringIcSt11char_traitsIcESaIcEEESaIS5_EE11_S_max_sizeERKS6_
	.section	.text._ZNKSt12_Vector_baseINSt7__cxx1112basic_stringIcSt11char_traitsIcESaIcEEESaIS5_EE19_M_get_Tp_allocatorEv,"axG",@progbits,_ZNKSt12_Vector_baseINSt7__cxx1112basic_stringIcSt11char_traitsIcESaIcEEESaIS5_EE19_M_get_Tp_allocatorEv,comdat
	.align 2
	.weak	_ZNKSt12_Vector_baseINSt7__cxx1112basic_stringIcSt11char_traitsIcESaIcEEESaIS5_EE19_M_get_Tp_allocatorEv
	.type	_ZNKSt12_Vector_baseINSt7__cxx1112basic_stringIcSt11char_traitsIcESaIcEEESaIS5_EE19_M_get_Tp_allocatorEv, @function
_ZNKSt12_Vector_baseINSt7__cxx1112basic_stringIcSt11char_traitsIcESaIcEEESaIS5_EE19_M_get_Tp_allocatorEv:
.LFB3805:
	.cfi_startproc
	pushq	%rbp
	.cfi_def_cfa_offset 16
	.cfi_offset 6, -16
	movq	%rsp, %rbp
	.cfi_def_cfa_register 6
	movq	%rdi, -8(%rbp)
	movq	-8(%rbp), %rax
	popq	%rbp
	.cfi_def_cfa 7, 8
	ret
	.cfi_endproc
.LFE3805:
	.size	_ZNKSt12_Vector_baseINSt7__cxx1112basic_stringIcSt11char_traitsIcESaIcEEESaIS5_EE19_M_get_Tp_allocatorEv, .-_ZNKSt12_Vector_baseINSt7__cxx1112basic_stringIcSt11char_traitsIcESaIcEEESaIS5_EE19_M_get_Tp_allocatorEv
	.section	.text._ZSt25__uninitialized_default_nIPNSt7__cxx1112basic_stringIcSt11char_traitsIcESaIcEEEmET_S7_T0_,"axG",@progbits,_ZSt25__uninitialized_default_nIPNSt7__cxx1112basic_stringIcSt11char_traitsIcESaIcEEEmET_S7_T0_,comdat
	.weak	_ZSt25__uninitialized_default_nIPNSt7__cxx1112basic_stringIcSt11char_traitsIcESaIcEEEmET_S7_T0_
	.type	_ZSt25__uninitialized_default_nIPNSt7__cxx1112basic_stringIcSt11char_traitsIcESaIcEEEmET_S7_T0_, @function
_ZSt25__uninitialized_default_nIPNSt7__cxx1112basic_stringIcSt11char_traitsIcESaIcEEEmET_S7_T0_:
.LFB3806:
	.cfi_startproc
	pushq	%rbp
	.cfi_def_cfa_offset 16
	.cfi_offset 6, -16
	movq	%rsp, %rbp
	.cfi_def_cfa_register 6
	subq	$32, %rsp
	movq	%rdi, -24(%rbp)
	movq	%rsi, -32(%rbp)
	movb	$1, -1(%rbp)
	movq	-32(%rbp), %rdx
	movq	-24(%rbp), %rax
	movq	%rdx, %rsi
	movq	%rax, %rdi
	call	_ZNSt27__uninitialized_default_n_1ILb0EE18__uninit_default_nIPNSt7__cxx1112basic_stringIcSt11char_traitsIcESaIcEEEmEET_S9_T0_
	leave
	.cfi_def_cfa 7, 8
	ret
	.cfi_endproc
.LFE3806:
	.size	_ZSt25__uninitialized_default_nIPNSt7__cxx1112basic_stringIcSt11char_traitsIcESaIcEEEmET_S7_T0_, .-_ZSt25__uninitialized_default_nIPNSt7__cxx1112basic_stringIcSt11char_traitsIcESaIcEEEmET_S7_T0_
	.section	.text._ZNSt16allocator_traitsISaINSt7__cxx1112basic_stringIcSt11char_traitsIcESaIcEEEEE8allocateERS6_m,"axG",@progbits,_ZNSt16allocator_traitsISaINSt7__cxx1112basic_stringIcSt11char_traitsIcESaIcEEEEE8allocateERS6_m,comdat
	.weak	_ZNSt16allocator_traitsISaINSt7__cxx1112basic_stringIcSt11char_traitsIcESaIcEEEEE8allocateERS6_m
	.type	_ZNSt16allocator_traitsISaINSt7__cxx1112basic_stringIcSt11char_traitsIcESaIcEEEEE8allocateERS6_m, @function
_ZNSt16allocator_traitsISaINSt7__cxx1112basic_stringIcSt11char_traitsIcESaIcEEEEE8allocateERS6_m:
.LFB3807:
	.cfi_startproc
	pushq	%rbp
	.cfi_def_cfa_offset 16
	.cfi_offset 6, -16
	movq	%rsp, %rbp
	.cfi_def_cfa_register 6
	subq	$16, %rsp
	movq	%rdi, -8(%rbp)
	movq	%rsi, -16(%rbp)
	movq	-16(%rbp), %rcx
	movq	-8(%rbp), %rax
	movl	$0, %edx
	movq	%rcx, %rsi
	movq	%rax, %rdi
	call	_ZN9__gnu_cxx13new_allocatorINSt7__cxx1112basic_stringIcSt11char_traitsIcESaIcEEEE8allocateEmPKv
	leave
	.cfi_def_cfa 7, 8
	ret
	.cfi_endproc
.LFE3807:
	.size	_ZNSt16allocator_traitsISaINSt7__cxx1112basic_stringIcSt11char_traitsIcESaIcEEEEE8allocateERS6_m, .-_ZNSt16allocator_traitsISaINSt7__cxx1112basic_stringIcSt11char_traitsIcESaIcEEEEE8allocateERS6_m
	.section	.text._ZNSt6vectorINSt7__cxx1112basic_stringIcSt11char_traitsIcESaIcEEESaIS5_EE14_S_do_relocateEPS5_S8_S8_RS6_St17integral_constantIbLb1EE,"axG",@progbits,_ZNSt6vectorINSt7__cxx1112basic_stringIcSt11char_traitsIcESaIcEEESaIS5_EE14_S_do_relocateEPS5_S8_S8_RS6_St17integral_constantIbLb1EE,comdat
	.weak	_ZNSt6vectorINSt7__cxx1112basic_stringIcSt11char_traitsIcESaIcEEESaIS5_EE14_S_do_relocateEPS5_S8_S8_RS6_St17integral_constantIbLb1EE
	.type	_ZNSt6vectorINSt7__cxx1112basic_stringIcSt11char_traitsIcESaIcEEESaIS5_EE14_S_do_relocateEPS5_S8_S8_RS6_St17integral_constantIbLb1EE, @function
_ZNSt6vectorINSt7__cxx1112basic_stringIcSt11char_traitsIcESaIcEEESaIS5_EE14_S_do_relocateEPS5_S8_S8_RS6_St17integral_constantIbLb1EE:
.LFB3808:
	.cfi_startproc
	pushq	%rbp
	.cfi_def_cfa_offset 16
	.cfi_offset 6, -16
	movq	%rsp, %rbp
	.cfi_def_cfa_register 6
	subq	$32, %rsp
	movq	%rdi, -8(%rbp)
	movq	%rsi, -16(%rbp)
	movq	%rdx, -24(%rbp)
	movq	%rcx, -32(%rbp)
	movq	-32(%rbp), %rcx
	movq	-24(%rbp), %rdx
	movq	-16(%rbp), %rsi
	movq	-8(%rbp), %rax
	movq	%rax, %rdi
	call	_ZSt12__relocate_aIPNSt7__cxx1112basic_stringIcSt11char_traitsIcESaIcEEES6_SaIS5_EET0_T_S9_S8_RT1_
	leave
	.cfi_def_cfa 7, 8
	ret
	.cfi_endproc
.LFE3808:
	.size	_ZNSt6vectorINSt7__cxx1112basic_stringIcSt11char_traitsIcESaIcEEESaIS5_EE14_S_do_relocateEPS5_S8_S8_RS6_St17integral_constantIbLb1EE, .-_ZNSt6vectorINSt7__cxx1112basic_stringIcSt11char_traitsIcESaIcEEESaIS5_EE14_S_do_relocateEPS5_S8_S8_RS6_St17integral_constantIbLb1EE
	.section	.text._ZSt8distanceIPcENSt15iterator_traitsIT_E15difference_typeES2_S2_,"axG",@progbits,_ZSt8distanceIPcENSt15iterator_traitsIT_E15difference_typeES2_S2_,comdat
	.weak	_ZSt8distanceIPcENSt15iterator_traitsIT_E15difference_typeES2_S2_
	.type	_ZSt8distanceIPcENSt15iterator_traitsIT_E15difference_typeES2_S2_, @function
_ZSt8distanceIPcENSt15iterator_traitsIT_E15difference_typeES2_S2_:
.LFB3812:
	.cfi_startproc
	pushq	%rbp
	.cfi_def_cfa_offset 16
	.cfi_offset 6, -16
	movq	%rsp, %rbp
	.cfi_def_cfa_register 6
	subq	$16, %rsp
	movq	%rdi, -8(%rbp)
	movq	%rsi, -16(%rbp)
	leaq	-8(%rbp), %rax
	movq	%rax, %rdi
	call	_ZSt19__iterator_categoryIPcENSt15iterator_traitsIT_E17iterator_categoryERKS2_
	movq	-8(%rbp), %rax
	movq	-16(%rbp), %rdx
	movq	%rdx, %rsi
	movq	%rax, %rdi
	call	_ZSt10__distanceIPcENSt15iterator_traitsIT_E15difference_typeES2_S2_St26random_access_iterator_tag
	leave
	.cfi_def_cfa 7, 8
	ret
	.cfi_endproc
.LFE3812:
	.size	_ZSt8distanceIPcENSt15iterator_traitsIT_E15difference_typeES2_S2_, .-_ZSt8distanceIPcENSt15iterator_traitsIT_E15difference_typeES2_S2_
	.section	.rodata
	.align 8
.LC3:
	.string	"basic_string::_M_construct null not valid"
	.section	.text._ZNSt7__cxx1112basic_stringIcSt11char_traitsIcESaIcEE12_M_constructIPcEEvT_S7_St20forward_iterator_tag,"axG",@progbits,_ZNSt7__cxx1112basic_stringIcSt11char_traitsIcESaIcEE12_M_constructIPcEEvT_S7_St20forward_iterator_tag,comdat
	.align 2
	.weak	_ZNSt7__cxx1112basic_stringIcSt11char_traitsIcESaIcEE12_M_constructIPcEEvT_S7_St20forward_iterator_tag
	.type	_ZNSt7__cxx1112basic_stringIcSt11char_traitsIcESaIcEE12_M_constructIPcEEvT_S7_St20forward_iterator_tag, @function
_ZNSt7__cxx1112basic_stringIcSt11char_traitsIcESaIcEE12_M_constructIPcEEvT_S7_St20forward_iterator_tag:
.LFB3811:
	.cfi_startproc
	.cfi_personality 0x9b,DW.ref.__gxx_personality_v0
	.cfi_lsda 0x1b,.LLSDA3811
	pushq	%rbp
	.cfi_def_cfa_offset 16
	.cfi_offset 6, -16
	movq	%rsp, %rbp
	.cfi_def_cfa_register 6
	pushq	%rbx
	subq	$56, %rsp
	.cfi_offset 3, -24
	movq	%rdi, -40(%rbp)
	movq	%rsi, -48(%rbp)
	movq	%rdx, -56(%rbp)
	movq	%fs:40, %rax
	movq	%rax, -24(%rbp)
	xorl	%eax, %eax
	movq	-48(%rbp), %rax
	movq	%rax, %rdi
	call	_ZN9__gnu_cxx17__is_null_pointerIcEEbPT_
	testb	%al, %al
	je	.L292
	movq	-48(%rbp), %rax
	cmpq	-56(%rbp), %rax
	je	.L292
	movl	$1, %eax
	jmp	.L293
.L292:
	movl	$0, %eax
.L293:
	testb	%al, %al
	je	.L294
	leaq	.LC3(%rip), %rdi
.LEHB26:
	call	_ZSt19__throw_logic_errorPKc@PLT
.L294:
	movq	-56(%rbp), %rdx
	movq	-48(%rbp), %rax
	movq	%rdx, %rsi
	movq	%rax, %rdi
	call	_ZSt8distanceIPcENSt15iterator_traitsIT_E15difference_typeES2_S2_
	movq	%rax, -32(%rbp)
	movq	-32(%rbp), %rax
	cmpq	$15, %rax
	jbe	.L295
	leaq	-32(%rbp), %rcx
	movq	-40(%rbp), %rax
	movl	$0, %edx
	movq	%rcx, %rsi
	movq	%rax, %rdi
	call	_ZNSt7__cxx1112basic_stringIcSt11char_traitsIcESaIcEE9_M_createERmm@PLT
	movq	%rax, %rdx
	movq	-40(%rbp), %rax
	movq	%rdx, %rsi
	movq	%rax, %rdi
	call	_ZNSt7__cxx1112basic_stringIcSt11char_traitsIcESaIcEE7_M_dataEPc@PLT
	movq	-32(%rbp), %rdx
	movq	-40(%rbp), %rax
	movq	%rdx, %rsi
	movq	%rax, %rdi
	call	_ZNSt7__cxx1112basic_stringIcSt11char_traitsIcESaIcEE11_M_capacityEm@PLT
.LEHE26:
.L295:
	movq	-40(%rbp), %rax
	movq	%rax, %rdi
.LEHB27:
	call	_ZNKSt7__cxx1112basic_stringIcSt11char_traitsIcESaIcEE7_M_dataEv@PLT
.LEHE27:
	movq	%rax, %rcx
	movq	-56(%rbp), %rdx
	movq	-48(%rbp), %rax
	movq	%rax, %rsi
	movq	%rcx, %rdi
	call	_ZNSt7__cxx1112basic_stringIcSt11char_traitsIcESaIcEE13_S_copy_charsEPcS5_S5_@PLT
	movq	-32(%rbp), %rdx
	movq	-40(%rbp), %rax
	movq	%rdx, %rsi
	movq	%rax, %rdi
.LEHB28:
	call	_ZNSt7__cxx1112basic_stringIcSt11char_traitsIcESaIcEE13_M_set_lengthEm@PLT
.LEHE28:
	nop
	movq	-24(%rbp), %rax
	xorq	%fs:40, %rax
	je	.L298
	jmp	.L301
.L299:
	movq	%rax, %rdi
	call	__cxa_begin_catch@PLT
	movq	-40(%rbp), %rax
	movq	%rax, %rdi
.LEHB29:
	call	_ZNSt7__cxx1112basic_stringIcSt11char_traitsIcESaIcEE10_M_disposeEv@PLT
	call	__cxa_rethrow@PLT
.LEHE29:
.L300:
	movq	%rax, %rbx
	call	__cxa_end_catch@PLT
	movq	%rbx, %rax
	movq	%rax, %rdi
.LEHB30:
	call	_Unwind_Resume@PLT
.LEHE30:
.L301:
	call	__stack_chk_fail@PLT
.L298:
	addq	$56, %rsp
	popq	%rbx
	popq	%rbp
	.cfi_def_cfa 7, 8
	ret
	.cfi_endproc
.LFE3811:
	.section	.gcc_except_table
	.align 4
.LLSDA3811:
	.byte	0xff
	.byte	0x9b
	.uleb128 .LLSDATT3811-.LLSDATTD3811
.LLSDATTD3811:
	.byte	0x1
	.uleb128 .LLSDACSE3811-.LLSDACSB3811
.LLSDACSB3811:
	.uleb128 .LEHB26-.LFB3811
	.uleb128 .LEHE26-.LEHB26
	.uleb128 0
	.uleb128 0
	.uleb128 .LEHB27-.LFB3811
	.uleb128 .LEHE27-.LEHB27
	.uleb128 .L299-.LFB3811
	.uleb128 0x1
	.uleb128 .LEHB28-.LFB3811
	.uleb128 .LEHE28-.LEHB28
	.uleb128 0
	.uleb128 0
	.uleb128 .LEHB29-.LFB3811
	.uleb128 .LEHE29-.LEHB29
	.uleb128 .L300-.LFB3811
	.uleb128 0
	.uleb128 .LEHB30-.LFB3811
	.uleb128 .LEHE30-.LEHB30
	.uleb128 0
	.uleb128 0
.LLSDACSE3811:
	.byte	0x1
	.byte	0
	.align 4
	.long	0

.LLSDATT3811:
	.section	.text._ZNSt7__cxx1112basic_stringIcSt11char_traitsIcESaIcEE12_M_constructIPcEEvT_S7_St20forward_iterator_tag,"axG",@progbits,_ZNSt7__cxx1112basic_stringIcSt11char_traitsIcESaIcEE12_M_constructIPcEEvT_S7_St20forward_iterator_tag,comdat
	.size	_ZNSt7__cxx1112basic_stringIcSt11char_traitsIcESaIcEE12_M_constructIPcEEvT_S7_St20forward_iterator_tag, .-_ZNSt7__cxx1112basic_stringIcSt11char_traitsIcESaIcEE12_M_constructIPcEEvT_S7_St20forward_iterator_tag
	.section	.text._ZSt4moveIRNSt12_Vector_baseIN7HashMapINSt7__cxx1112basic_stringIcSt11char_traitsIcESaIcEEEiSt4hashIS7_EE7ElementESaISB_EE12_Vector_implEEONSt16remove_referenceIT_E4typeEOSH_,"axG",@progbits,_ZSt4moveIRNSt12_Vector_baseIN7HashMapINSt7__cxx1112basic_stringIcSt11char_traitsIcESaIcEEEiSt4hashIS7_EE7ElementESaISB_EE12_Vector_implEEONSt16remove_referenceIT_E4typeEOSH_,comdat
	.weak	_ZSt4moveIRNSt12_Vector_baseIN7HashMapINSt7__cxx1112basic_stringIcSt11char_traitsIcESaIcEEEiSt4hashIS7_EE7ElementESaISB_EE12_Vector_implEEONSt16remove_referenceIT_E4typeEOSH_
	.type	_ZSt4moveIRNSt12_Vector_baseIN7HashMapINSt7__cxx1112basic_stringIcSt11char_traitsIcESaIcEEEiSt4hashIS7_EE7ElementESaISB_EE12_Vector_implEEONSt16remove_referenceIT_E4typeEOSH_, @function
_ZSt4moveIRNSt12_Vector_baseIN7HashMapINSt7__cxx1112basic_stringIcSt11char_traitsIcESaIcEEEiSt4hashIS7_EE7ElementESaISB_EE12_Vector_implEEONSt16remove_referenceIT_E4typeEOSH_:
.LFB3813:
	.cfi_startproc
	pushq	%rbp
	.cfi_def_cfa_offset 16
	.cfi_offset 6, -16
	movq	%rsp, %rbp
	.cfi_def_cfa_register 6
	movq	%rdi, -8(%rbp)
	movq	-8(%rbp), %rax
	popq	%rbp
	.cfi_def_cfa 7, 8
	ret
	.cfi_endproc
.LFE3813:
	.size	_ZSt4moveIRNSt12_Vector_baseIN7HashMapINSt7__cxx1112basic_stringIcSt11char_traitsIcESaIcEEEiSt4hashIS7_EE7ElementESaISB_EE12_Vector_implEEONSt16remove_referenceIT_E4typeEOSH_, .-_ZSt4moveIRNSt12_Vector_baseIN7HashMapINSt7__cxx1112basic_stringIcSt11char_traitsIcESaIcEEEiSt4hashIS7_EE7ElementESaISB_EE12_Vector_implEEONSt16remove_referenceIT_E4typeEOSH_
	.section	.text._ZNSaIN7HashMapINSt7__cxx1112basic_stringIcSt11char_traitsIcESaIcEEEiSt4hashIS5_EE7ElementEEC2ERKSA_,"axG",@progbits,_ZNSaIN7HashMapINSt7__cxx1112basic_stringIcSt11char_traitsIcESaIcEEEiSt4hashIS5_EE7ElementEEC5ERKSA_,comdat
	.align 2
	.weak	_ZNSaIN7HashMapINSt7__cxx1112basic_stringIcSt11char_traitsIcESaIcEEEiSt4hashIS5_EE7ElementEEC2ERKSA_
	.type	_ZNSaIN7HashMapINSt7__cxx1112basic_stringIcSt11char_traitsIcESaIcEEEiSt4hashIS5_EE7ElementEEC2ERKSA_, @function
_ZNSaIN7HashMapINSt7__cxx1112basic_stringIcSt11char_traitsIcESaIcEEEiSt4hashIS5_EE7ElementEEC2ERKSA_:
.LFB3815:
	.cfi_startproc
	pushq	%rbp
	.cfi_def_cfa_offset 16
	.cfi_offset 6, -16
	movq	%rsp, %rbp
	.cfi_def_cfa_register 6
	subq	$16, %rsp
	movq	%rdi, -8(%rbp)
	movq	%rsi, -16(%rbp)
	movq	-16(%rbp), %rdx
	movq	-8(%rbp), %rax
	movq	%rdx, %rsi
	movq	%rax, %rdi
	call	_ZN9__gnu_cxx13new_allocatorIN7HashMapINSt7__cxx1112basic_stringIcSt11char_traitsIcESaIcEEEiSt4hashIS7_EE7ElementEEC2ERKSC_
	nop
	leave
	.cfi_def_cfa 7, 8
	ret
	.cfi_endproc
.LFE3815:
	.size	_ZNSaIN7HashMapINSt7__cxx1112basic_stringIcSt11char_traitsIcESaIcEEEiSt4hashIS5_EE7ElementEEC2ERKSA_, .-_ZNSaIN7HashMapINSt7__cxx1112basic_stringIcSt11char_traitsIcESaIcEEEiSt4hashIS5_EE7ElementEEC2ERKSA_
	.weak	_ZNSaIN7HashMapINSt7__cxx1112basic_stringIcSt11char_traitsIcESaIcEEEiSt4hashIS5_EE7ElementEEC1ERKSA_
	.set	_ZNSaIN7HashMapINSt7__cxx1112basic_stringIcSt11char_traitsIcESaIcEEEiSt4hashIS5_EE7ElementEEC1ERKSA_,_ZNSaIN7HashMapINSt7__cxx1112basic_stringIcSt11char_traitsIcESaIcEEEiSt4hashIS5_EE7ElementEEC2ERKSA_
	.section	.text._ZNSt12_Vector_baseIN7HashMapINSt7__cxx1112basic_stringIcSt11char_traitsIcESaIcEEEiSt4hashIS6_EE7ElementESaISA_EE17_Vector_impl_dataC2EOSD_,"axG",@progbits,_ZNSt12_Vector_baseIN7HashMapINSt7__cxx1112basic_stringIcSt11char_traitsIcESaIcEEEiSt4hashIS6_EE7ElementESaISA_EE17_Vector_impl_dataC5EOSD_,comdat
	.align 2
	.weak	_ZNSt12_Vector_baseIN7HashMapINSt7__cxx1112basic_stringIcSt11char_traitsIcESaIcEEEiSt4hashIS6_EE7ElementESaISA_EE17_Vector_impl_dataC2EOSD_
	.type	_ZNSt12_Vector_baseIN7HashMapINSt7__cxx1112basic_stringIcSt11char_traitsIcESaIcEEEiSt4hashIS6_EE7ElementESaISA_EE17_Vector_impl_dataC2EOSD_, @function
_ZNSt12_Vector_baseIN7HashMapINSt7__cxx1112basic_stringIcSt11char_traitsIcESaIcEEEiSt4hashIS6_EE7ElementESaISA_EE17_Vector_impl_dataC2EOSD_:
.LFB3818:
	.cfi_startproc
	pushq	%rbp
	.cfi_def_cfa_offset 16
	.cfi_offset 6, -16
	movq	%rsp, %rbp
	.cfi_def_cfa_register 6
	movq	%rdi, -8(%rbp)
	movq	%rsi, -16(%rbp)
	movq	-16(%rbp), %rax
	movq	(%rax), %rdx
	movq	-8(%rbp), %rax
	movq	%rdx, (%rax)
	movq	-16(%rbp), %rax
	movq	8(%rax), %rdx
	movq	-8(%rbp), %rax
	movq	%rdx, 8(%rax)
	movq	-16(%rbp), %rax
	movq	16(%rax), %rdx
	movq	-8(%rbp), %rax
	movq	%rdx, 16(%rax)
	movq	-16(%rbp), %rax
	movq	$0, 16(%rax)
	movq	-16(%rbp), %rax
	movq	16(%rax), %rdx
	movq	-16(%rbp), %rax
	movq	%rdx, 8(%rax)
	movq	-16(%rbp), %rax
	movq	8(%rax), %rdx
	movq	-16(%rbp), %rax
	movq	%rdx, (%rax)
	nop
	popq	%rbp
	.cfi_def_cfa 7, 8
	ret
	.cfi_endproc
.LFE3818:
	.size	_ZNSt12_Vector_baseIN7HashMapINSt7__cxx1112basic_stringIcSt11char_traitsIcESaIcEEEiSt4hashIS6_EE7ElementESaISA_EE17_Vector_impl_dataC2EOSD_, .-_ZNSt12_Vector_baseIN7HashMapINSt7__cxx1112basic_stringIcSt11char_traitsIcESaIcEEEiSt4hashIS6_EE7ElementESaISA_EE17_Vector_impl_dataC2EOSD_
	.weak	_ZNSt12_Vector_baseIN7HashMapINSt7__cxx1112basic_stringIcSt11char_traitsIcESaIcEEEiSt4hashIS6_EE7ElementESaISA_EE17_Vector_impl_dataC1EOSD_
	.set	_ZNSt12_Vector_baseIN7HashMapINSt7__cxx1112basic_stringIcSt11char_traitsIcESaIcEEEiSt4hashIS6_EE7ElementESaISA_EE17_Vector_impl_dataC1EOSD_,_ZNSt12_Vector_baseIN7HashMapINSt7__cxx1112basic_stringIcSt11char_traitsIcESaIcEEEiSt4hashIS6_EE7ElementESaISA_EE17_Vector_impl_dataC2EOSD_
	.section	.text._ZN9__gnu_cxx17__normal_iteratorIPN7HashMapINSt7__cxx1112basic_stringIcSt11char_traitsIcESaIcEEEiSt4hashIS7_EE7ElementESt6vectorISB_SaISB_EEEC2ERKSC_,"axG",@progbits,_ZN9__gnu_cxx17__normal_iteratorIPN7HashMapINSt7__cxx1112basic_stringIcSt11char_traitsIcESaIcEEEiSt4hashIS7_EE7ElementESt6vectorISB_SaISB_EEEC5ERKSC_,comdat
	.align 2
	.weak	_ZN9__gnu_cxx17__normal_iteratorIPN7HashMapINSt7__cxx1112basic_stringIcSt11char_traitsIcESaIcEEEiSt4hashIS7_EE7ElementESt6vectorISB_SaISB_EEEC2ERKSC_
	.type	_ZN9__gnu_cxx17__normal_iteratorIPN7HashMapINSt7__cxx1112basic_stringIcSt11char_traitsIcESaIcEEEiSt4hashIS7_EE7ElementESt6vectorISB_SaISB_EEEC2ERKSC_, @function
_ZN9__gnu_cxx17__normal_iteratorIPN7HashMapINSt7__cxx1112basic_stringIcSt11char_traitsIcESaIcEEEiSt4hashIS7_EE7ElementESt6vectorISB_SaISB_EEEC2ERKSC_:
.LFB3821:
	.cfi_startproc
	pushq	%rbp
	.cfi_def_cfa_offset 16
	.cfi_offset 6, -16
	movq	%rsp, %rbp
	.cfi_def_cfa_register 6
	movq	%rdi, -8(%rbp)
	movq	%rsi, -16(%rbp)
	movq	-16(%rbp), %rax
	movq	(%rax), %rdx
	movq	-8(%rbp), %rax
	movq	%rdx, (%rax)
	nop
	popq	%rbp
	.cfi_def_cfa 7, 8
	ret
	.cfi_endproc
.LFE3821:
	.size	_ZN9__gnu_cxx17__normal_iteratorIPN7HashMapINSt7__cxx1112basic_stringIcSt11char_traitsIcESaIcEEEiSt4hashIS7_EE7ElementESt6vectorISB_SaISB_EEEC2ERKSC_, .-_ZN9__gnu_cxx17__normal_iteratorIPN7HashMapINSt7__cxx1112basic_stringIcSt11char_traitsIcESaIcEEEiSt4hashIS7_EE7ElementESt6vectorISB_SaISB_EEEC2ERKSC_
	.weak	_ZN9__gnu_cxx17__normal_iteratorIPN7HashMapINSt7__cxx1112basic_stringIcSt11char_traitsIcESaIcEEEiSt4hashIS7_EE7ElementESt6vectorISB_SaISB_EEEC1ERKSC_
	.set	_ZN9__gnu_cxx17__normal_iteratorIPN7HashMapINSt7__cxx1112basic_stringIcSt11char_traitsIcESaIcEEEiSt4hashIS7_EE7ElementESt6vectorISB_SaISB_EEEC1ERKSC_,_ZN9__gnu_cxx17__normal_iteratorIPN7HashMapINSt7__cxx1112basic_stringIcSt11char_traitsIcESaIcEEEiSt4hashIS7_EE7ElementESt6vectorISB_SaISB_EEEC2ERKSC_
	.section	.text._ZNK9__gnu_cxx17__normal_iteratorIPN7HashMapINSt7__cxx1112basic_stringIcSt11char_traitsIcESaIcEEEiSt4hashIS7_EE7ElementESt6vectorISB_SaISB_EEE4baseEv,"axG",@progbits,_ZNK9__gnu_cxx17__normal_iteratorIPN7HashMapINSt7__cxx1112basic_stringIcSt11char_traitsIcESaIcEEEiSt4hashIS7_EE7ElementESt6vectorISB_SaISB_EEE4baseEv,comdat
	.align 2
	.weak	_ZNK9__gnu_cxx17__normal_iteratorIPN7HashMapINSt7__cxx1112basic_stringIcSt11char_traitsIcESaIcEEEiSt4hashIS7_EE7ElementESt6vectorISB_SaISB_EEE4baseEv
	.type	_ZNK9__gnu_cxx17__normal_iteratorIPN7HashMapINSt7__cxx1112basic_stringIcSt11char_traitsIcESaIcEEEiSt4hashIS7_EE7ElementESt6vectorISB_SaISB_EEE4baseEv, @function
_ZNK9__gnu_cxx17__normal_iteratorIPN7HashMapINSt7__cxx1112basic_stringIcSt11char_traitsIcESaIcEEEiSt4hashIS7_EE7ElementESt6vectorISB_SaISB_EEE4baseEv:
.LFB3823:
	.cfi_startproc
	pushq	%rbp
	.cfi_def_cfa_offset 16
	.cfi_offset 6, -16
	movq	%rsp, %rbp
	.cfi_def_cfa_register 6
	movq	%rdi, -8(%rbp)
	movq	-8(%rbp), %rax
	popq	%rbp
	.cfi_def_cfa 7, 8
	ret
	.cfi_endproc
.LFE3823:
	.size	_ZNK9__gnu_cxx17__normal_iteratorIPN7HashMapINSt7__cxx1112basic_stringIcSt11char_traitsIcESaIcEEEiSt4hashIS7_EE7ElementESt6vectorISB_SaISB_EEE4baseEv, .-_ZNK9__gnu_cxx17__normal_iteratorIPN7HashMapINSt7__cxx1112basic_stringIcSt11char_traitsIcESaIcEEEiSt4hashIS7_EE7ElementESt6vectorISB_SaISB_EEE4baseEv
	.section	.text._ZSt7forwardIRiEOT_RNSt16remove_referenceIS1_E4typeE,"axG",@progbits,_ZSt7forwardIRiEOT_RNSt16remove_referenceIS1_E4typeE,comdat
	.weak	_ZSt7forwardIRiEOT_RNSt16remove_referenceIS1_E4typeE
	.type	_ZSt7forwardIRiEOT_RNSt16remove_referenceIS1_E4typeE, @function
_ZSt7forwardIRiEOT_RNSt16remove_referenceIS1_E4typeE:
.LFB3824:
	.cfi_startproc
	pushq	%rbp
	.cfi_def_cfa_offset 16
	.cfi_offset 6, -16
	movq	%rsp, %rbp
	.cfi_def_cfa_register 6
	movq	%rdi, -8(%rbp)
	movq	-8(%rbp), %rax
	popq	%rbp
	.cfi_def_cfa 7, 8
	ret
	.cfi_endproc
.LFE3824:
	.size	_ZSt7forwardIRiEOT_RNSt16remove_referenceIS1_E4typeE, .-_ZSt7forwardIRiEOT_RNSt16remove_referenceIS1_E4typeE
	.section	.text._ZN9__gnu_cxx13new_allocatorIN7HashMapINSt7__cxx1112basic_stringIcSt11char_traitsIcESaIcEEEiSt4hashIS7_EE7ElementEE10deallocateEPSB_m,"axG",@progbits,_ZN9__gnu_cxx13new_allocatorIN7HashMapINSt7__cxx1112basic_stringIcSt11char_traitsIcESaIcEEEiSt4hashIS7_EE7ElementEE10deallocateEPSB_m,comdat
	.align 2
	.weak	_ZN9__gnu_cxx13new_allocatorIN7HashMapINSt7__cxx1112basic_stringIcSt11char_traitsIcESaIcEEEiSt4hashIS7_EE7ElementEE10deallocateEPSB_m
	.type	_ZN9__gnu_cxx13new_allocatorIN7HashMapINSt7__cxx1112basic_stringIcSt11char_traitsIcESaIcEEEiSt4hashIS7_EE7ElementEE10deallocateEPSB_m, @function
_ZN9__gnu_cxx13new_allocatorIN7HashMapINSt7__cxx1112basic_stringIcSt11char_traitsIcESaIcEEEiSt4hashIS7_EE7ElementEE10deallocateEPSB_m:
.LFB3865:
	.cfi_startproc
	pushq	%rbp
	.cfi_def_cfa_offset 16
	.cfi_offset 6, -16
	movq	%rsp, %rbp
	.cfi_def_cfa_register 6
	subq	$32, %rsp
	movq	%rdi, -8(%rbp)
	movq	%rsi, -16(%rbp)
	movq	%rdx, -24(%rbp)
	movq	-16(%rbp), %rax
	movq	%rax, %rdi
	call	_ZdlPv@PLT
	leave
	.cfi_def_cfa 7, 8
	ret
	.cfi_endproc
.LFE3865:
	.size	_ZN9__gnu_cxx13new_allocatorIN7HashMapINSt7__cxx1112basic_stringIcSt11char_traitsIcESaIcEEEiSt4hashIS7_EE7ElementEE10deallocateEPSB_m, .-_ZN9__gnu_cxx13new_allocatorIN7HashMapINSt7__cxx1112basic_stringIcSt11char_traitsIcESaIcEEEiSt4hashIS7_EE7ElementEE10deallocateEPSB_m
	.section	.text._ZNSt6vectorIN7HashMapINSt7__cxx1112basic_stringIcSt11char_traitsIcESaIcEEEiSt4hashIS6_EE7ElementESaISA_EE11_S_max_sizeERKSB_,"axG",@progbits,_ZNSt6vectorIN7HashMapINSt7__cxx1112basic_stringIcSt11char_traitsIcESaIcEEEiSt4hashIS6_EE7ElementESaISA_EE11_S_max_sizeERKSB_,comdat
	.weak	_ZNSt6vectorIN7HashMapINSt7__cxx1112basic_stringIcSt11char_traitsIcESaIcEEEiSt4hashIS6_EE7ElementESaISA_EE11_S_max_sizeERKSB_
	.type	_ZNSt6vectorIN7HashMapINSt7__cxx1112basic_stringIcSt11char_traitsIcESaIcEEEiSt4hashIS6_EE7ElementESaISA_EE11_S_max_sizeERKSB_, @function
_ZNSt6vectorIN7HashMapINSt7__cxx1112basic_stringIcSt11char_traitsIcESaIcEEEiSt4hashIS6_EE7ElementESaISA_EE11_S_max_sizeERKSB_:
.LFB3866:
	.cfi_startproc
	pushq	%rbp
	.cfi_def_cfa_offset 16
	.cfi_offset 6, -16
	movq	%rsp, %rbp
	.cfi_def_cfa_register 6
	subq	$48, %rsp
	movq	%rdi, -40(%rbp)
	movq	%fs:40, %rax
	movq	%rax, -8(%rbp)
	xorl	%eax, %eax
	movabsq	$230584300921369395, %rax
	movq	%rax, -24(%rbp)
	movq	-40(%rbp), %rax
	movq	%rax, %rdi
	call	_ZNSt16allocator_traitsISaIN7HashMapINSt7__cxx1112basic_stringIcSt11char_traitsIcESaIcEEEiSt4hashIS6_EE7ElementEEE8max_sizeERKSB_
	movq	%rax, -16(%rbp)
	leaq	-16(%rbp), %rdx
	leaq	-24(%rbp), %rax
	movq	%rdx, %rsi
	movq	%rax, %rdi
	call	_ZSt3minImERKT_S2_S2_
	movq	(%rax), %rax
	movq	-8(%rbp), %rcx
	xorq	%fs:40, %rcx
	je	.L315
	call	__stack_chk_fail@PLT
.L315:
	leave
	.cfi_def_cfa 7, 8
	ret
	.cfi_endproc
.LFE3866:
	.size	_ZNSt6vectorIN7HashMapINSt7__cxx1112basic_stringIcSt11char_traitsIcESaIcEEEiSt4hashIS6_EE7ElementESaISA_EE11_S_max_sizeERKSB_, .-_ZNSt6vectorIN7HashMapINSt7__cxx1112basic_stringIcSt11char_traitsIcESaIcEEEiSt4hashIS6_EE7ElementESaISA_EE11_S_max_sizeERKSB_
	.section	.text._ZNKSt12_Vector_baseIN7HashMapINSt7__cxx1112basic_stringIcSt11char_traitsIcESaIcEEEiSt4hashIS6_EE7ElementESaISA_EE19_M_get_Tp_allocatorEv,"axG",@progbits,_ZNKSt12_Vector_baseIN7HashMapINSt7__cxx1112basic_stringIcSt11char_traitsIcESaIcEEEiSt4hashIS6_EE7ElementESaISA_EE19_M_get_Tp_allocatorEv,comdat
	.align 2
	.weak	_ZNKSt12_Vector_baseIN7HashMapINSt7__cxx1112basic_stringIcSt11char_traitsIcESaIcEEEiSt4hashIS6_EE7ElementESaISA_EE19_M_get_Tp_allocatorEv
	.type	_ZNKSt12_Vector_baseIN7HashMapINSt7__cxx1112basic_stringIcSt11char_traitsIcESaIcEEEiSt4hashIS6_EE7ElementESaISA_EE19_M_get_Tp_allocatorEv, @function
_ZNKSt12_Vector_baseIN7HashMapINSt7__cxx1112basic_stringIcSt11char_traitsIcESaIcEEEiSt4hashIS6_EE7ElementESaISA_EE19_M_get_Tp_allocatorEv:
.LFB3867:
	.cfi_startproc
	pushq	%rbp
	.cfi_def_cfa_offset 16
	.cfi_offset 6, -16
	movq	%rsp, %rbp
	.cfi_def_cfa_register 6
	movq	%rdi, -8(%rbp)
	movq	-8(%rbp), %rax
	popq	%rbp
	.cfi_def_cfa 7, 8
	ret
	.cfi_endproc
.LFE3867:
	.size	_ZNKSt12_Vector_baseIN7HashMapINSt7__cxx1112basic_stringIcSt11char_traitsIcESaIcEEEiSt4hashIS6_EE7ElementESaISA_EE19_M_get_Tp_allocatorEv, .-_ZNKSt12_Vector_baseIN7HashMapINSt7__cxx1112basic_stringIcSt11char_traitsIcESaIcEEEiSt4hashIS6_EE7ElementESaISA_EE19_M_get_Tp_allocatorEv
	.section	.text._ZSt25__uninitialized_default_nIPN7HashMapINSt7__cxx1112basic_stringIcSt11char_traitsIcESaIcEEEiSt4hashIS6_EE7ElementEmET_SC_T0_,"axG",@progbits,_ZSt25__uninitialized_default_nIPN7HashMapINSt7__cxx1112basic_stringIcSt11char_traitsIcESaIcEEEiSt4hashIS6_EE7ElementEmET_SC_T0_,comdat
	.weak	_ZSt25__uninitialized_default_nIPN7HashMapINSt7__cxx1112basic_stringIcSt11char_traitsIcESaIcEEEiSt4hashIS6_EE7ElementEmET_SC_T0_
	.type	_ZSt25__uninitialized_default_nIPN7HashMapINSt7__cxx1112basic_stringIcSt11char_traitsIcESaIcEEEiSt4hashIS6_EE7ElementEmET_SC_T0_, @function
_ZSt25__uninitialized_default_nIPN7HashMapINSt7__cxx1112basic_stringIcSt11char_traitsIcESaIcEEEiSt4hashIS6_EE7ElementEmET_SC_T0_:
.LFB3868:
	.cfi_startproc
	pushq	%rbp
	.cfi_def_cfa_offset 16
	.cfi_offset 6, -16
	movq	%rsp, %rbp
	.cfi_def_cfa_register 6
	subq	$32, %rsp
	movq	%rdi, -24(%rbp)
	movq	%rsi, -32(%rbp)
	movb	$1, -1(%rbp)
	movq	-32(%rbp), %rdx
	movq	-24(%rbp), %rax
	movq	%rdx, %rsi
	movq	%rax, %rdi
	call	_ZNSt27__uninitialized_default_n_1ILb0EE18__uninit_default_nIPN7HashMapINSt7__cxx1112basic_stringIcSt11char_traitsIcESaIcEEEiSt4hashIS8_EE7ElementEmEET_SE_T0_
	leave
	.cfi_def_cfa 7, 8
	ret
	.cfi_endproc
.LFE3868:
	.size	_ZSt25__uninitialized_default_nIPN7HashMapINSt7__cxx1112basic_stringIcSt11char_traitsIcESaIcEEEiSt4hashIS6_EE7ElementEmET_SC_T0_, .-_ZSt25__uninitialized_default_nIPN7HashMapINSt7__cxx1112basic_stringIcSt11char_traitsIcESaIcEEEiSt4hashIS6_EE7ElementEmET_SC_T0_
	.section	.text._ZNSt16allocator_traitsISaIN7HashMapINSt7__cxx1112basic_stringIcSt11char_traitsIcESaIcEEEiSt4hashIS6_EE7ElementEEE8allocateERSB_m,"axG",@progbits,_ZNSt16allocator_traitsISaIN7HashMapINSt7__cxx1112basic_stringIcSt11char_traitsIcESaIcEEEiSt4hashIS6_EE7ElementEEE8allocateERSB_m,comdat
	.weak	_ZNSt16allocator_traitsISaIN7HashMapINSt7__cxx1112basic_stringIcSt11char_traitsIcESaIcEEEiSt4hashIS6_EE7ElementEEE8allocateERSB_m
	.type	_ZNSt16allocator_traitsISaIN7HashMapINSt7__cxx1112basic_stringIcSt11char_traitsIcESaIcEEEiSt4hashIS6_EE7ElementEEE8allocateERSB_m, @function
_ZNSt16allocator_traitsISaIN7HashMapINSt7__cxx1112basic_stringIcSt11char_traitsIcESaIcEEEiSt4hashIS6_EE7ElementEEE8allocateERSB_m:
.LFB3869:
	.cfi_startproc
	pushq	%rbp
	.cfi_def_cfa_offset 16
	.cfi_offset 6, -16
	movq	%rsp, %rbp
	.cfi_def_cfa_register 6
	subq	$16, %rsp
	movq	%rdi, -8(%rbp)
	movq	%rsi, -16(%rbp)
	movq	-16(%rbp), %rcx
	movq	-8(%rbp), %rax
	movl	$0, %edx
	movq	%rcx, %rsi
	movq	%rax, %rdi
	call	_ZN9__gnu_cxx13new_allocatorIN7HashMapINSt7__cxx1112basic_stringIcSt11char_traitsIcESaIcEEEiSt4hashIS7_EE7ElementEE8allocateEmPKv
	leave
	.cfi_def_cfa 7, 8
	ret
	.cfi_endproc
.LFE3869:
	.size	_ZNSt16allocator_traitsISaIN7HashMapINSt7__cxx1112basic_stringIcSt11char_traitsIcESaIcEEEiSt4hashIS6_EE7ElementEEE8allocateERSB_m, .-_ZNSt16allocator_traitsISaIN7HashMapINSt7__cxx1112basic_stringIcSt11char_traitsIcESaIcEEEiSt4hashIS6_EE7ElementEEE8allocateERSB_m
	.section	.text._ZNSt6vectorIN7HashMapINSt7__cxx1112basic_stringIcSt11char_traitsIcESaIcEEEiSt4hashIS6_EE7ElementESaISA_EE14_S_do_relocateEPSA_SD_SD_RSB_St17integral_constantIbLb1EE,"axG",@progbits,_ZNSt6vectorIN7HashMapINSt7__cxx1112basic_stringIcSt11char_traitsIcESaIcEEEiSt4hashIS6_EE7ElementESaISA_EE14_S_do_relocateEPSA_SD_SD_RSB_St17integral_constantIbLb1EE,comdat
	.weak	_ZNSt6vectorIN7HashMapINSt7__cxx1112basic_stringIcSt11char_traitsIcESaIcEEEiSt4hashIS6_EE7ElementESaISA_EE14_S_do_relocateEPSA_SD_SD_RSB_St17integral_constantIbLb1EE
	.type	_ZNSt6vectorIN7HashMapINSt7__cxx1112basic_stringIcSt11char_traitsIcESaIcEEEiSt4hashIS6_EE7ElementESaISA_EE14_S_do_relocateEPSA_SD_SD_RSB_St17integral_constantIbLb1EE, @function
_ZNSt6vectorIN7HashMapINSt7__cxx1112basic_stringIcSt11char_traitsIcESaIcEEEiSt4hashIS6_EE7ElementESaISA_EE14_S_do_relocateEPSA_SD_SD_RSB_St17integral_constantIbLb1EE:
.LFB3870:
	.cfi_startproc
	pushq	%rbp
	.cfi_def_cfa_offset 16
	.cfi_offset 6, -16
	movq	%rsp, %rbp
	.cfi_def_cfa_register 6
	subq	$32, %rsp
	movq	%rdi, -8(%rbp)
	movq	%rsi, -16(%rbp)
	movq	%rdx, -24(%rbp)
	movq	%rcx, -32(%rbp)
	movq	-32(%rbp), %rcx
	movq	-24(%rbp), %rdx
	movq	-16(%rbp), %rsi
	movq	-8(%rbp), %rax
	movq	%rax, %rdi
	call	_ZSt12__relocate_aIPN7HashMapINSt7__cxx1112basic_stringIcSt11char_traitsIcESaIcEEEiSt4hashIS6_EE7ElementESB_SaISA_EET0_T_SE_SD_RT1_
	leave
	.cfi_def_cfa 7, 8
	ret
	.cfi_endproc
.LFE3870:
	.size	_ZNSt6vectorIN7HashMapINSt7__cxx1112basic_stringIcSt11char_traitsIcESaIcEEEiSt4hashIS6_EE7ElementESaISA_EE14_S_do_relocateEPSA_SD_SD_RSB_St17integral_constantIbLb1EE, .-_ZNSt6vectorIN7HashMapINSt7__cxx1112basic_stringIcSt11char_traitsIcESaIcEEEiSt4hashIS6_EE7ElementESaISA_EE14_S_do_relocateEPSA_SD_SD_RSB_St17integral_constantIbLb1EE
	.section	.text._ZSt11__addressofIN7HashMapINSt7__cxx1112basic_stringIcSt11char_traitsIcESaIcEEEiSt4hashIS6_EE7ElementEEPT_RSB_,"axG",@progbits,_ZSt11__addressofIN7HashMapINSt7__cxx1112basic_stringIcSt11char_traitsIcESaIcEEEiSt4hashIS6_EE7ElementEEPT_RSB_,comdat
	.weak	_ZSt11__addressofIN7HashMapINSt7__cxx1112basic_stringIcSt11char_traitsIcESaIcEEEiSt4hashIS6_EE7ElementEEPT_RSB_
	.type	_ZSt11__addressofIN7HashMapINSt7__cxx1112basic_stringIcSt11char_traitsIcESaIcEEEiSt4hashIS6_EE7ElementEEPT_RSB_, @function
_ZSt11__addressofIN7HashMapINSt7__cxx1112basic_stringIcSt11char_traitsIcESaIcEEEiSt4hashIS6_EE7ElementEEPT_RSB_:
.LFB3871:
	.cfi_startproc
	pushq	%rbp
	.cfi_def_cfa_offset 16
	.cfi_offset 6, -16
	movq	%rsp, %rbp
	.cfi_def_cfa_register 6
	movq	%rdi, -8(%rbp)
	movq	-8(%rbp), %rax
	popq	%rbp
	.cfi_def_cfa 7, 8
	ret
	.cfi_endproc
.LFE3871:
	.size	_ZSt11__addressofIN7HashMapINSt7__cxx1112basic_stringIcSt11char_traitsIcESaIcEEEiSt4hashIS6_EE7ElementEEPT_RSB_, .-_ZSt11__addressofIN7HashMapINSt7__cxx1112basic_stringIcSt11char_traitsIcESaIcEEEiSt4hashIS6_EE7ElementEEPT_RSB_
	.section	.text._ZSt8_DestroyIN7HashMapINSt7__cxx1112basic_stringIcSt11char_traitsIcESaIcEEEiSt4hashIS6_EE7ElementEEvPT_,"axG",@progbits,_ZSt8_DestroyIN7HashMapINSt7__cxx1112basic_stringIcSt11char_traitsIcESaIcEEEiSt4hashIS6_EE7ElementEEvPT_,comdat
	.weak	_ZSt8_DestroyIN7HashMapINSt7__cxx1112basic_stringIcSt11char_traitsIcESaIcEEEiSt4hashIS6_EE7ElementEEvPT_
	.type	_ZSt8_DestroyIN7HashMapINSt7__cxx1112basic_stringIcSt11char_traitsIcESaIcEEEiSt4hashIS6_EE7ElementEEvPT_, @function
_ZSt8_DestroyIN7HashMapINSt7__cxx1112basic_stringIcSt11char_traitsIcESaIcEEEiSt4hashIS6_EE7ElementEEvPT_:
.LFB3872:
	.cfi_startproc
	pushq	%rbp
	.cfi_def_cfa_offset 16
	.cfi_offset 6, -16
	movq	%rsp, %rbp
	.cfi_def_cfa_register 6
	subq	$16, %rsp
	movq	%rdi, -8(%rbp)
	movq	-8(%rbp), %rax
	movq	%rax, %rdi
	call	_ZN7HashMapINSt7__cxx1112basic_stringIcSt11char_traitsIcESaIcEEEiSt4hashIS5_EE7ElementD1Ev
	nop
	leave
	.cfi_def_cfa 7, 8
	ret
	.cfi_endproc
.LFE3872:
	.size	_ZSt8_DestroyIN7HashMapINSt7__cxx1112basic_stringIcSt11char_traitsIcESaIcEEEiSt4hashIS6_EE7ElementEEvPT_, .-_ZSt8_DestroyIN7HashMapINSt7__cxx1112basic_stringIcSt11char_traitsIcESaIcEEEiSt4hashIS6_EE7ElementEEvPT_
	.section	.text._ZSt11__addressofINSt7__cxx1112basic_stringIcSt11char_traitsIcESaIcEEEEPT_RS6_,"axG",@progbits,_ZSt11__addressofINSt7__cxx1112basic_stringIcSt11char_traitsIcESaIcEEEEPT_RS6_,comdat
	.weak	_ZSt11__addressofINSt7__cxx1112basic_stringIcSt11char_traitsIcESaIcEEEEPT_RS6_
	.type	_ZSt11__addressofINSt7__cxx1112basic_stringIcSt11char_traitsIcESaIcEEEEPT_RS6_, @function
_ZSt11__addressofINSt7__cxx1112basic_stringIcSt11char_traitsIcESaIcEEEEPT_RS6_:
.LFB3873:
	.cfi_startproc
	pushq	%rbp
	.cfi_def_cfa_offset 16
	.cfi_offset 6, -16
	movq	%rsp, %rbp
	.cfi_def_cfa_register 6
	movq	%rdi, -8(%rbp)
	movq	-8(%rbp), %rax
	popq	%rbp
	.cfi_def_cfa 7, 8
	ret
	.cfi_endproc
.LFE3873:
	.size	_ZSt11__addressofINSt7__cxx1112basic_stringIcSt11char_traitsIcESaIcEEEEPT_RS6_, .-_ZSt11__addressofINSt7__cxx1112basic_stringIcSt11char_traitsIcESaIcEEEEPT_RS6_
	.section	.text._ZSt8_DestroyINSt7__cxx1112basic_stringIcSt11char_traitsIcESaIcEEEEvPT_,"axG",@progbits,_ZSt8_DestroyINSt7__cxx1112basic_stringIcSt11char_traitsIcESaIcEEEEvPT_,comdat
	.weak	_ZSt8_DestroyINSt7__cxx1112basic_stringIcSt11char_traitsIcESaIcEEEEvPT_
	.type	_ZSt8_DestroyINSt7__cxx1112basic_stringIcSt11char_traitsIcESaIcEEEEvPT_, @function
_ZSt8_DestroyINSt7__cxx1112basic_stringIcSt11char_traitsIcESaIcEEEEvPT_:
.LFB3874:
	.cfi_startproc
	pushq	%rbp
	.cfi_def_cfa_offset 16
	.cfi_offset 6, -16
	movq	%rsp, %rbp
	.cfi_def_cfa_register 6
	subq	$16, %rsp
	movq	%rdi, -8(%rbp)
	movq	-8(%rbp), %rax
	movq	%rax, %rdi
	call	_ZNSt7__cxx1112basic_stringIcSt11char_traitsIcESaIcEED1Ev@PLT
	nop
	leave
	.cfi_def_cfa 7, 8
	ret
	.cfi_endproc
.LFE3874:
	.size	_ZSt8_DestroyINSt7__cxx1112basic_stringIcSt11char_traitsIcESaIcEEEEvPT_, .-_ZSt8_DestroyINSt7__cxx1112basic_stringIcSt11char_traitsIcESaIcEEEEvPT_
	.section	.text._ZNSt16allocator_traitsISaINSt7__cxx1112basic_stringIcSt11char_traitsIcESaIcEEEEE8max_sizeERKS6_,"axG",@progbits,_ZNSt16allocator_traitsISaINSt7__cxx1112basic_stringIcSt11char_traitsIcESaIcEEEEE8max_sizeERKS6_,comdat
	.weak	_ZNSt16allocator_traitsISaINSt7__cxx1112basic_stringIcSt11char_traitsIcESaIcEEEEE8max_sizeERKS6_
	.type	_ZNSt16allocator_traitsISaINSt7__cxx1112basic_stringIcSt11char_traitsIcESaIcEEEEE8max_sizeERKS6_, @function
_ZNSt16allocator_traitsISaINSt7__cxx1112basic_stringIcSt11char_traitsIcESaIcEEEEE8max_sizeERKS6_:
.LFB3875:
	.cfi_startproc
	pushq	%rbp
	.cfi_def_cfa_offset 16
	.cfi_offset 6, -16
	movq	%rsp, %rbp
	.cfi_def_cfa_register 6
	subq	$16, %rsp
	movq	%rdi, -8(%rbp)
	movq	-8(%rbp), %rax
	movq	%rax, %rdi
	call	_ZNK9__gnu_cxx13new_allocatorINSt7__cxx1112basic_stringIcSt11char_traitsIcESaIcEEEE8max_sizeEv
	leave
	.cfi_def_cfa 7, 8
	ret
	.cfi_endproc
.LFE3875:
	.size	_ZNSt16allocator_traitsISaINSt7__cxx1112basic_stringIcSt11char_traitsIcESaIcEEEEE8max_sizeERKS6_, .-_ZNSt16allocator_traitsISaINSt7__cxx1112basic_stringIcSt11char_traitsIcESaIcEEEEE8max_sizeERKS6_
	.section	.text._ZNSt27__uninitialized_default_n_1ILb0EE18__uninit_default_nIPNSt7__cxx1112basic_stringIcSt11char_traitsIcESaIcEEEmEET_S9_T0_,"axG",@progbits,_ZNSt27__uninitialized_default_n_1ILb0EE18__uninit_default_nIPNSt7__cxx1112basic_stringIcSt11char_traitsIcESaIcEEEmEET_S9_T0_,comdat
	.weak	_ZNSt27__uninitialized_default_n_1ILb0EE18__uninit_default_nIPNSt7__cxx1112basic_stringIcSt11char_traitsIcESaIcEEEmEET_S9_T0_
	.type	_ZNSt27__uninitialized_default_n_1ILb0EE18__uninit_default_nIPNSt7__cxx1112basic_stringIcSt11char_traitsIcESaIcEEEmEET_S9_T0_, @function
_ZNSt27__uninitialized_default_n_1ILb0EE18__uninit_default_nIPNSt7__cxx1112basic_stringIcSt11char_traitsIcESaIcEEEmEET_S9_T0_:
.LFB3876:
	.cfi_startproc
	pushq	%rbp
	.cfi_def_cfa_offset 16
	.cfi_offset 6, -16
	movq	%rsp, %rbp
	.cfi_def_cfa_register 6
	subq	$32, %rsp
	movq	%rdi, -24(%rbp)
	movq	%rsi, -32(%rbp)
	movq	-24(%rbp), %rax
	movq	%rax, -8(%rbp)
.L334:
	cmpq	$0, -32(%rbp)
	je	.L333
	movq	-8(%rbp), %rax
	movq	%rax, %rdi
	call	_ZSt11__addressofINSt7__cxx1112basic_stringIcSt11char_traitsIcESaIcEEEEPT_RS6_
	movq	%rax, %rdi
	call	_ZSt10_ConstructINSt7__cxx1112basic_stringIcSt11char_traitsIcESaIcEEEJEEvPT_DpOT0_
	subq	$1, -32(%rbp)
	addq	$32, -8(%rbp)
	jmp	.L334
.L333:
	movq	-8(%rbp), %rax
	leave
	.cfi_def_cfa 7, 8
	ret
	.cfi_endproc
.LFE3876:
	.size	_ZNSt27__uninitialized_default_n_1ILb0EE18__uninit_default_nIPNSt7__cxx1112basic_stringIcSt11char_traitsIcESaIcEEEmEET_S9_T0_, .-_ZNSt27__uninitialized_default_n_1ILb0EE18__uninit_default_nIPNSt7__cxx1112basic_stringIcSt11char_traitsIcESaIcEEEmEET_S9_T0_
	.section	.text._ZN9__gnu_cxx13new_allocatorINSt7__cxx1112basic_stringIcSt11char_traitsIcESaIcEEEE8allocateEmPKv,"axG",@progbits,_ZN9__gnu_cxx13new_allocatorINSt7__cxx1112basic_stringIcSt11char_traitsIcESaIcEEEE8allocateEmPKv,comdat
	.align 2
	.weak	_ZN9__gnu_cxx13new_allocatorINSt7__cxx1112basic_stringIcSt11char_traitsIcESaIcEEEE8allocateEmPKv
	.type	_ZN9__gnu_cxx13new_allocatorINSt7__cxx1112basic_stringIcSt11char_traitsIcESaIcEEEE8allocateEmPKv, @function
_ZN9__gnu_cxx13new_allocatorINSt7__cxx1112basic_stringIcSt11char_traitsIcESaIcEEEE8allocateEmPKv:
.LFB3877:
	.cfi_startproc
	pushq	%rbp
	.cfi_def_cfa_offset 16
	.cfi_offset 6, -16
	movq	%rsp, %rbp
	.cfi_def_cfa_register 6
	subq	$32, %rsp
	movq	%rdi, -8(%rbp)
	movq	%rsi, -16(%rbp)
	movq	%rdx, -24(%rbp)
	movq	-8(%rbp), %rax
	movq	%rax, %rdi
	call	_ZNK9__gnu_cxx13new_allocatorINSt7__cxx1112basic_stringIcSt11char_traitsIcESaIcEEEE8max_sizeEv
	cmpq	%rax, -16(%rbp)
	seta	%al
	testb	%al, %al
	je	.L337
	call	_ZSt17__throw_bad_allocv@PLT
.L337:
	movq	-16(%rbp), %rax
	salq	$5, %rax
	movq	%rax, %rdi
	call	_Znwm@PLT
	nop
	leave
	.cfi_def_cfa 7, 8
	ret
	.cfi_endproc
.LFE3877:
	.size	_ZN9__gnu_cxx13new_allocatorINSt7__cxx1112basic_stringIcSt11char_traitsIcESaIcEEEE8allocateEmPKv, .-_ZN9__gnu_cxx13new_allocatorINSt7__cxx1112basic_stringIcSt11char_traitsIcESaIcEEEE8allocateEmPKv
	.section	.text._ZSt12__relocate_aIPNSt7__cxx1112basic_stringIcSt11char_traitsIcESaIcEEES6_SaIS5_EET0_T_S9_S8_RT1_,"axG",@progbits,_ZSt12__relocate_aIPNSt7__cxx1112basic_stringIcSt11char_traitsIcESaIcEEES6_SaIS5_EET0_T_S9_S8_RT1_,comdat
	.weak	_ZSt12__relocate_aIPNSt7__cxx1112basic_stringIcSt11char_traitsIcESaIcEEES6_SaIS5_EET0_T_S9_S8_RT1_
	.type	_ZSt12__relocate_aIPNSt7__cxx1112basic_stringIcSt11char_traitsIcESaIcEEES6_SaIS5_EET0_T_S9_S8_RT1_, @function
_ZSt12__relocate_aIPNSt7__cxx1112basic_stringIcSt11char_traitsIcESaIcEEES6_SaIS5_EET0_T_S9_S8_RT1_:
.LFB3878:
	.cfi_startproc
	pushq	%rbp
	.cfi_def_cfa_offset 16
	.cfi_offset 6, -16
	movq	%rsp, %rbp
	.cfi_def_cfa_register 6
	pushq	%r12
	pushq	%rbx
	subq	$32, %rsp
	.cfi_offset 12, -24
	.cfi_offset 3, -32
	movq	%rdi, -24(%rbp)
	movq	%rsi, -32(%rbp)
	movq	%rdx, -40(%rbp)
	movq	%rcx, -48(%rbp)
	movq	-40(%rbp), %rax
	movq	%rax, %rdi
	call	_ZSt12__niter_baseIPNSt7__cxx1112basic_stringIcSt11char_traitsIcESaIcEEEET_S7_
	movq	%rax, %r12
	movq	-32(%rbp), %rax
	movq	%rax, %rdi
	call	_ZSt12__niter_baseIPNSt7__cxx1112basic_stringIcSt11char_traitsIcESaIcEEEET_S7_
	movq	%rax, %rbx
	movq	-24(%rbp), %rax
	movq	%rax, %rdi
	call	_ZSt12__niter_baseIPNSt7__cxx1112basic_stringIcSt11char_traitsIcESaIcEEEET_S7_
	movq	%rax, %rdi
	movq	-48(%rbp), %rax
	movq	%rax, %rcx
	movq	%r12, %rdx
	movq	%rbx, %rsi
	call	_ZSt14__relocate_a_1IPNSt7__cxx1112basic_stringIcSt11char_traitsIcESaIcEEES6_SaIS5_EET0_T_S9_S8_RT1_
	addq	$32, %rsp
	popq	%rbx
	popq	%r12
	popq	%rbp
	.cfi_def_cfa 7, 8
	ret
	.cfi_endproc
.LFE3878:
	.size	_ZSt12__relocate_aIPNSt7__cxx1112basic_stringIcSt11char_traitsIcESaIcEEES6_SaIS5_EET0_T_S9_S8_RT1_, .-_ZSt12__relocate_aIPNSt7__cxx1112basic_stringIcSt11char_traitsIcESaIcEEES6_SaIS5_EET0_T_S9_S8_RT1_
	.section	.text._ZN9__gnu_cxx17__is_null_pointerIcEEbPT_,"axG",@progbits,_ZN9__gnu_cxx17__is_null_pointerIcEEbPT_,comdat
	.weak	_ZN9__gnu_cxx17__is_null_pointerIcEEbPT_
	.type	_ZN9__gnu_cxx17__is_null_pointerIcEEbPT_, @function
_ZN9__gnu_cxx17__is_null_pointerIcEEbPT_:
.LFB3880:
	.cfi_startproc
	pushq	%rbp
	.cfi_def_cfa_offset 16
	.cfi_offset 6, -16
	movq	%rsp, %rbp
	.cfi_def_cfa_register 6
	movq	%rdi, -8(%rbp)
	cmpq	$0, -8(%rbp)
	sete	%al
	popq	%rbp
	.cfi_def_cfa 7, 8
	ret
	.cfi_endproc
.LFE3880:
	.size	_ZN9__gnu_cxx17__is_null_pointerIcEEbPT_, .-_ZN9__gnu_cxx17__is_null_pointerIcEEbPT_
	.section	.text._ZSt19__iterator_categoryIPcENSt15iterator_traitsIT_E17iterator_categoryERKS2_,"axG",@progbits,_ZSt19__iterator_categoryIPcENSt15iterator_traitsIT_E17iterator_categoryERKS2_,comdat
	.weak	_ZSt19__iterator_categoryIPcENSt15iterator_traitsIT_E17iterator_categoryERKS2_
	.type	_ZSt19__iterator_categoryIPcENSt15iterator_traitsIT_E17iterator_categoryERKS2_, @function
_ZSt19__iterator_categoryIPcENSt15iterator_traitsIT_E17iterator_categoryERKS2_:
.LFB3881:
	.cfi_startproc
	pushq	%rbp
	.cfi_def_cfa_offset 16
	.cfi_offset 6, -16
	movq	%rsp, %rbp
	.cfi_def_cfa_register 6
	movq	%rdi, -8(%rbp)
	popq	%rbp
	.cfi_def_cfa 7, 8
	ret
	.cfi_endproc
.LFE3881:
	.size	_ZSt19__iterator_categoryIPcENSt15iterator_traitsIT_E17iterator_categoryERKS2_, .-_ZSt19__iterator_categoryIPcENSt15iterator_traitsIT_E17iterator_categoryERKS2_
	.section	.text._ZSt10__distanceIPcENSt15iterator_traitsIT_E15difference_typeES2_S2_St26random_access_iterator_tag,"axG",@progbits,_ZSt10__distanceIPcENSt15iterator_traitsIT_E15difference_typeES2_S2_St26random_access_iterator_tag,comdat
	.weak	_ZSt10__distanceIPcENSt15iterator_traitsIT_E15difference_typeES2_S2_St26random_access_iterator_tag
	.type	_ZSt10__distanceIPcENSt15iterator_traitsIT_E15difference_typeES2_S2_St26random_access_iterator_tag, @function
_ZSt10__distanceIPcENSt15iterator_traitsIT_E15difference_typeES2_S2_St26random_access_iterator_tag:
.LFB3882:
	.cfi_startproc
	pushq	%rbp
	.cfi_def_cfa_offset 16
	.cfi_offset 6, -16
	movq	%rsp, %rbp
	.cfi_def_cfa_register 6
	movq	%rdi, -8(%rbp)
	movq	%rsi, -16(%rbp)
	movq	-16(%rbp), %rax
	subq	-8(%rbp), %rax
	popq	%rbp
	.cfi_def_cfa 7, 8
	ret
	.cfi_endproc
.LFE3882:
	.size	_ZSt10__distanceIPcENSt15iterator_traitsIT_E15difference_typeES2_S2_St26random_access_iterator_tag, .-_ZSt10__distanceIPcENSt15iterator_traitsIT_E15difference_typeES2_S2_St26random_access_iterator_tag
	.section	.text._ZN9__gnu_cxx13new_allocatorIN7HashMapINSt7__cxx1112basic_stringIcSt11char_traitsIcESaIcEEEiSt4hashIS7_EE7ElementEEC2ERKSC_,"axG",@progbits,_ZN9__gnu_cxx13new_allocatorIN7HashMapINSt7__cxx1112basic_stringIcSt11char_traitsIcESaIcEEEiSt4hashIS7_EE7ElementEEC5ERKSC_,comdat
	.align 2
	.weak	_ZN9__gnu_cxx13new_allocatorIN7HashMapINSt7__cxx1112basic_stringIcSt11char_traitsIcESaIcEEEiSt4hashIS7_EE7ElementEEC2ERKSC_
	.type	_ZN9__gnu_cxx13new_allocatorIN7HashMapINSt7__cxx1112basic_stringIcSt11char_traitsIcESaIcEEEiSt4hashIS7_EE7ElementEEC2ERKSC_, @function
_ZN9__gnu_cxx13new_allocatorIN7HashMapINSt7__cxx1112basic_stringIcSt11char_traitsIcESaIcEEEiSt4hashIS7_EE7ElementEEC2ERKSC_:
.LFB3885:
	.cfi_startproc
	pushq	%rbp
	.cfi_def_cfa_offset 16
	.cfi_offset 6, -16
	movq	%rsp, %rbp
	.cfi_def_cfa_register 6
	movq	%rdi, -8(%rbp)
	movq	%rsi, -16(%rbp)
	nop
	popq	%rbp
	.cfi_def_cfa 7, 8
	ret
	.cfi_endproc
.LFE3885:
	.size	_ZN9__gnu_cxx13new_allocatorIN7HashMapINSt7__cxx1112basic_stringIcSt11char_traitsIcESaIcEEEiSt4hashIS7_EE7ElementEEC2ERKSC_, .-_ZN9__gnu_cxx13new_allocatorIN7HashMapINSt7__cxx1112basic_stringIcSt11char_traitsIcESaIcEEEiSt4hashIS7_EE7ElementEEC2ERKSC_
	.weak	_ZN9__gnu_cxx13new_allocatorIN7HashMapINSt7__cxx1112basic_stringIcSt11char_traitsIcESaIcEEEiSt4hashIS7_EE7ElementEEC1ERKSC_
	.set	_ZN9__gnu_cxx13new_allocatorIN7HashMapINSt7__cxx1112basic_stringIcSt11char_traitsIcESaIcEEEiSt4hashIS7_EE7ElementEEC1ERKSC_,_ZN9__gnu_cxx13new_allocatorIN7HashMapINSt7__cxx1112basic_stringIcSt11char_traitsIcESaIcEEEiSt4hashIS7_EE7ElementEEC2ERKSC_
	.section	.text._ZNSt16allocator_traitsISaIN7HashMapINSt7__cxx1112basic_stringIcSt11char_traitsIcESaIcEEEiSt4hashIS6_EE7ElementEEE8max_sizeERKSB_,"axG",@progbits,_ZNSt16allocator_traitsISaIN7HashMapINSt7__cxx1112basic_stringIcSt11char_traitsIcESaIcEEEiSt4hashIS6_EE7ElementEEE8max_sizeERKSB_,comdat
	.weak	_ZNSt16allocator_traitsISaIN7HashMapINSt7__cxx1112basic_stringIcSt11char_traitsIcESaIcEEEiSt4hashIS6_EE7ElementEEE8max_sizeERKSB_
	.type	_ZNSt16allocator_traitsISaIN7HashMapINSt7__cxx1112basic_stringIcSt11char_traitsIcESaIcEEEiSt4hashIS6_EE7ElementEEE8max_sizeERKSB_, @function
_ZNSt16allocator_traitsISaIN7HashMapINSt7__cxx1112basic_stringIcSt11char_traitsIcESaIcEEEiSt4hashIS6_EE7ElementEEE8max_sizeERKSB_:
.LFB3905:
	.cfi_startproc
	pushq	%rbp
	.cfi_def_cfa_offset 16
	.cfi_offset 6, -16
	movq	%rsp, %rbp
	.cfi_def_cfa_register 6
	subq	$16, %rsp
	movq	%rdi, -8(%rbp)
	movq	-8(%rbp), %rax
	movq	%rax, %rdi
	call	_ZNK9__gnu_cxx13new_allocatorIN7HashMapINSt7__cxx1112basic_stringIcSt11char_traitsIcESaIcEEEiSt4hashIS7_EE7ElementEE8max_sizeEv
	leave
	.cfi_def_cfa 7, 8
	ret
	.cfi_endproc
.LFE3905:
	.size	_ZNSt16allocator_traitsISaIN7HashMapINSt7__cxx1112basic_stringIcSt11char_traitsIcESaIcEEEiSt4hashIS6_EE7ElementEEE8max_sizeERKSB_, .-_ZNSt16allocator_traitsISaIN7HashMapINSt7__cxx1112basic_stringIcSt11char_traitsIcESaIcEEEiSt4hashIS6_EE7ElementEEE8max_sizeERKSB_
	.section	.text._ZNSt27__uninitialized_default_n_1ILb0EE18__uninit_default_nIPN7HashMapINSt7__cxx1112basic_stringIcSt11char_traitsIcESaIcEEEiSt4hashIS8_EE7ElementEmEET_SE_T0_,"axG",@progbits,_ZNSt27__uninitialized_default_n_1ILb0EE18__uninit_default_nIPN7HashMapINSt7__cxx1112basic_stringIcSt11char_traitsIcESaIcEEEiSt4hashIS8_EE7ElementEmEET_SE_T0_,comdat
	.weak	_ZNSt27__uninitialized_default_n_1ILb0EE18__uninit_default_nIPN7HashMapINSt7__cxx1112basic_stringIcSt11char_traitsIcESaIcEEEiSt4hashIS8_EE7ElementEmEET_SE_T0_
	.type	_ZNSt27__uninitialized_default_n_1ILb0EE18__uninit_default_nIPN7HashMapINSt7__cxx1112basic_stringIcSt11char_traitsIcESaIcEEEiSt4hashIS8_EE7ElementEmEET_SE_T0_, @function
_ZNSt27__uninitialized_default_n_1ILb0EE18__uninit_default_nIPN7HashMapINSt7__cxx1112basic_stringIcSt11char_traitsIcESaIcEEEiSt4hashIS8_EE7ElementEmEET_SE_T0_:
.LFB3906:
	.cfi_startproc
	.cfi_personality 0x9b,DW.ref.__gxx_personality_v0
	.cfi_lsda 0x1b,.LLSDA3906
	pushq	%rbp
	.cfi_def_cfa_offset 16
	.cfi_offset 6, -16
	movq	%rsp, %rbp
	.cfi_def_cfa_register 6
	pushq	%rbx
	subq	$40, %rsp
	.cfi_offset 3, -24
	movq	%rdi, -40(%rbp)
	movq	%rsi, -48(%rbp)
	movq	-40(%rbp), %rax
	movq	%rax, -24(%rbp)
.L352:
	cmpq	$0, -48(%rbp)
	je	.L351
	movq	-24(%rbp), %rax
	movq	%rax, %rdi
	call	_ZSt11__addressofIN7HashMapINSt7__cxx1112basic_stringIcSt11char_traitsIcESaIcEEEiSt4hashIS6_EE7ElementEEPT_RSB_
	movq	%rax, %rdi
.LEHB31:
	call	_ZSt10_ConstructIN7HashMapINSt7__cxx1112basic_stringIcSt11char_traitsIcESaIcEEEiSt4hashIS6_EE7ElementEJEEvPT_DpOT0_
.LEHE31:
	subq	$1, -48(%rbp)
	addq	$40, -24(%rbp)
	jmp	.L352
.L351:
	movq	-24(%rbp), %rax
	jmp	.L358
.L356:
	movq	%rax, %rdi
	call	__cxa_begin_catch@PLT
	movq	-24(%rbp), %rdx
	movq	-40(%rbp), %rax
	movq	%rdx, %rsi
	movq	%rax, %rdi
.LEHB32:
	call	_ZSt8_DestroyIPN7HashMapINSt7__cxx1112basic_stringIcSt11char_traitsIcESaIcEEEiSt4hashIS6_EE7ElementEEvT_SC_
	call	__cxa_rethrow@PLT
.LEHE32:
.L357:
	movq	%rax, %rbx
	call	__cxa_end_catch@PLT
	movq	%rbx, %rax
	movq	%rax, %rdi
.LEHB33:
	call	_Unwind_Resume@PLT
.LEHE33:
.L358:
	addq	$40, %rsp
	popq	%rbx
	popq	%rbp
	.cfi_def_cfa 7, 8
	ret
	.cfi_endproc
.LFE3906:
	.section	.gcc_except_table
	.align 4
.LLSDA3906:
	.byte	0xff
	.byte	0x9b
	.uleb128 .LLSDATT3906-.LLSDATTD3906
.LLSDATTD3906:
	.byte	0x1
	.uleb128 .LLSDACSE3906-.LLSDACSB3906
.LLSDACSB3906:
	.uleb128 .LEHB31-.LFB3906
	.uleb128 .LEHE31-.LEHB31
	.uleb128 .L356-.LFB3906
	.uleb128 0x1
	.uleb128 .LEHB32-.LFB3906
	.uleb128 .LEHE32-.LEHB32
	.uleb128 .L357-.LFB3906
	.uleb128 0
	.uleb128 .LEHB33-.LFB3906
	.uleb128 .LEHE33-.LEHB33
	.uleb128 0
	.uleb128 0
.LLSDACSE3906:
	.byte	0x1
	.byte	0
	.align 4
	.long	0

.LLSDATT3906:
	.section	.text._ZNSt27__uninitialized_default_n_1ILb0EE18__uninit_default_nIPN7HashMapINSt7__cxx1112basic_stringIcSt11char_traitsIcESaIcEEEiSt4hashIS8_EE7ElementEmEET_SE_T0_,"axG",@progbits,_ZNSt27__uninitialized_default_n_1ILb0EE18__uninit_default_nIPN7HashMapINSt7__cxx1112basic_stringIcSt11char_traitsIcESaIcEEEiSt4hashIS8_EE7ElementEmEET_SE_T0_,comdat
	.size	_ZNSt27__uninitialized_default_n_1ILb0EE18__uninit_default_nIPN7HashMapINSt7__cxx1112basic_stringIcSt11char_traitsIcESaIcEEEiSt4hashIS8_EE7ElementEmEET_SE_T0_, .-_ZNSt27__uninitialized_default_n_1ILb0EE18__uninit_default_nIPN7HashMapINSt7__cxx1112basic_stringIcSt11char_traitsIcESaIcEEEiSt4hashIS8_EE7ElementEmEET_SE_T0_
	.section	.text._ZN9__gnu_cxx13new_allocatorIN7HashMapINSt7__cxx1112basic_stringIcSt11char_traitsIcESaIcEEEiSt4hashIS7_EE7ElementEE8allocateEmPKv,"axG",@progbits,_ZN9__gnu_cxx13new_allocatorIN7HashMapINSt7__cxx1112basic_stringIcSt11char_traitsIcESaIcEEEiSt4hashIS7_EE7ElementEE8allocateEmPKv,comdat
	.align 2
	.weak	_ZN9__gnu_cxx13new_allocatorIN7HashMapINSt7__cxx1112basic_stringIcSt11char_traitsIcESaIcEEEiSt4hashIS7_EE7ElementEE8allocateEmPKv
	.type	_ZN9__gnu_cxx13new_allocatorIN7HashMapINSt7__cxx1112basic_stringIcSt11char_traitsIcESaIcEEEiSt4hashIS7_EE7ElementEE8allocateEmPKv, @function
_ZN9__gnu_cxx13new_allocatorIN7HashMapINSt7__cxx1112basic_stringIcSt11char_traitsIcESaIcEEEiSt4hashIS7_EE7ElementEE8allocateEmPKv:
.LFB3907:
	.cfi_startproc
	pushq	%rbp
	.cfi_def_cfa_offset 16
	.cfi_offset 6, -16
	movq	%rsp, %rbp
	.cfi_def_cfa_register 6
	subq	$32, %rsp
	movq	%rdi, -8(%rbp)
	movq	%rsi, -16(%rbp)
	movq	%rdx, -24(%rbp)
	movq	-8(%rbp), %rax
	movq	%rax, %rdi
	call	_ZNK9__gnu_cxx13new_allocatorIN7HashMapINSt7__cxx1112basic_stringIcSt11char_traitsIcESaIcEEEiSt4hashIS7_EE7ElementEE8max_sizeEv
	cmpq	%rax, -16(%rbp)
	seta	%al
	testb	%al, %al
	je	.L360
	call	_ZSt17__throw_bad_allocv@PLT
.L360:
	movq	-16(%rbp), %rdx
	movq	%rdx, %rax
	salq	$2, %rax
	addq	%rdx, %rax
	salq	$3, %rax
	movq	%rax, %rdi
	call	_Znwm@PLT
	nop
	leave
	.cfi_def_cfa 7, 8
	ret
	.cfi_endproc
.LFE3907:
	.size	_ZN9__gnu_cxx13new_allocatorIN7HashMapINSt7__cxx1112basic_stringIcSt11char_traitsIcESaIcEEEiSt4hashIS7_EE7ElementEE8allocateEmPKv, .-_ZN9__gnu_cxx13new_allocatorIN7HashMapINSt7__cxx1112basic_stringIcSt11char_traitsIcESaIcEEEiSt4hashIS7_EE7ElementEE8allocateEmPKv
	.section	.text._ZSt12__relocate_aIPN7HashMapINSt7__cxx1112basic_stringIcSt11char_traitsIcESaIcEEEiSt4hashIS6_EE7ElementESB_SaISA_EET0_T_SE_SD_RT1_,"axG",@progbits,_ZSt12__relocate_aIPN7HashMapINSt7__cxx1112basic_stringIcSt11char_traitsIcESaIcEEEiSt4hashIS6_EE7ElementESB_SaISA_EET0_T_SE_SD_RT1_,comdat
	.weak	_ZSt12__relocate_aIPN7HashMapINSt7__cxx1112basic_stringIcSt11char_traitsIcESaIcEEEiSt4hashIS6_EE7ElementESB_SaISA_EET0_T_SE_SD_RT1_
	.type	_ZSt12__relocate_aIPN7HashMapINSt7__cxx1112basic_stringIcSt11char_traitsIcESaIcEEEiSt4hashIS6_EE7ElementESB_SaISA_EET0_T_SE_SD_RT1_, @function
_ZSt12__relocate_aIPN7HashMapINSt7__cxx1112basic_stringIcSt11char_traitsIcESaIcEEEiSt4hashIS6_EE7ElementESB_SaISA_EET0_T_SE_SD_RT1_:
.LFB3908:
	.cfi_startproc
	pushq	%rbp
	.cfi_def_cfa_offset 16
	.cfi_offset 6, -16
	movq	%rsp, %rbp
	.cfi_def_cfa_register 6
	pushq	%r12
	pushq	%rbx
	subq	$32, %rsp
	.cfi_offset 12, -24
	.cfi_offset 3, -32
	movq	%rdi, -24(%rbp)
	movq	%rsi, -32(%rbp)
	movq	%rdx, -40(%rbp)
	movq	%rcx, -48(%rbp)
	movq	-40(%rbp), %rax
	movq	%rax, %rdi
	call	_ZSt12__niter_baseIPN7HashMapINSt7__cxx1112basic_stringIcSt11char_traitsIcESaIcEEEiSt4hashIS6_EE7ElementEET_SC_
	movq	%rax, %r12
	movq	-32(%rbp), %rax
	movq	%rax, %rdi
	call	_ZSt12__niter_baseIPN7HashMapINSt7__cxx1112basic_stringIcSt11char_traitsIcESaIcEEEiSt4hashIS6_EE7ElementEET_SC_
	movq	%rax, %rbx
	movq	-24(%rbp), %rax
	movq	%rax, %rdi
	call	_ZSt12__niter_baseIPN7HashMapINSt7__cxx1112basic_stringIcSt11char_traitsIcESaIcEEEiSt4hashIS6_EE7ElementEET_SC_
	movq	%rax, %rdi
	movq	-48(%rbp), %rax
	movq	%rax, %rcx
	movq	%r12, %rdx
	movq	%rbx, %rsi
	call	_ZSt14__relocate_a_1IPN7HashMapINSt7__cxx1112basic_stringIcSt11char_traitsIcESaIcEEEiSt4hashIS6_EE7ElementESB_SaISA_EET0_T_SE_SD_RT1_
	addq	$32, %rsp
	popq	%rbx
	popq	%r12
	popq	%rbp
	.cfi_def_cfa 7, 8
	ret
	.cfi_endproc
.LFE3908:
	.size	_ZSt12__relocate_aIPN7HashMapINSt7__cxx1112basic_stringIcSt11char_traitsIcESaIcEEEiSt4hashIS6_EE7ElementESB_SaISA_EET0_T_SE_SD_RT1_, .-_ZSt12__relocate_aIPN7HashMapINSt7__cxx1112basic_stringIcSt11char_traitsIcESaIcEEEiSt4hashIS6_EE7ElementESB_SaISA_EET0_T_SE_SD_RT1_
	.section	.text._ZNK9__gnu_cxx13new_allocatorINSt7__cxx1112basic_stringIcSt11char_traitsIcESaIcEEEE8max_sizeEv,"axG",@progbits,_ZNK9__gnu_cxx13new_allocatorINSt7__cxx1112basic_stringIcSt11char_traitsIcESaIcEEEE8max_sizeEv,comdat
	.align 2
	.weak	_ZNK9__gnu_cxx13new_allocatorINSt7__cxx1112basic_stringIcSt11char_traitsIcESaIcEEEE8max_sizeEv
	.type	_ZNK9__gnu_cxx13new_allocatorINSt7__cxx1112basic_stringIcSt11char_traitsIcESaIcEEEE8max_sizeEv, @function
_ZNK9__gnu_cxx13new_allocatorINSt7__cxx1112basic_stringIcSt11char_traitsIcESaIcEEEE8max_sizeEv:
.LFB3909:
	.cfi_startproc
	pushq	%rbp
	.cfi_def_cfa_offset 16
	.cfi_offset 6, -16
	movq	%rsp, %rbp
	.cfi_def_cfa_register 6
	movq	%rdi, -8(%rbp)
	movabsq	$288230376151711743, %rax
	popq	%rbp
	.cfi_def_cfa 7, 8
	ret
	.cfi_endproc
.LFE3909:
	.size	_ZNK9__gnu_cxx13new_allocatorINSt7__cxx1112basic_stringIcSt11char_traitsIcESaIcEEEE8max_sizeEv, .-_ZNK9__gnu_cxx13new_allocatorINSt7__cxx1112basic_stringIcSt11char_traitsIcESaIcEEEE8max_sizeEv
	.section	.text._ZSt10_ConstructINSt7__cxx1112basic_stringIcSt11char_traitsIcESaIcEEEJEEvPT_DpOT0_,"axG",@progbits,_ZSt10_ConstructINSt7__cxx1112basic_stringIcSt11char_traitsIcESaIcEEEJEEvPT_DpOT0_,comdat
	.weak	_ZSt10_ConstructINSt7__cxx1112basic_stringIcSt11char_traitsIcESaIcEEEJEEvPT_DpOT0_
	.type	_ZSt10_ConstructINSt7__cxx1112basic_stringIcSt11char_traitsIcESaIcEEEJEEvPT_DpOT0_, @function
_ZSt10_ConstructINSt7__cxx1112basic_stringIcSt11char_traitsIcESaIcEEEJEEvPT_DpOT0_:
.LFB3910:
	.cfi_startproc
	pushq	%rbp
	.cfi_def_cfa_offset 16
	.cfi_offset 6, -16
	movq	%rsp, %rbp
	.cfi_def_cfa_register 6
	subq	$16, %rsp
	movq	%rdi, -8(%rbp)
	movq	-8(%rbp), %rax
	movq	%rax, %rsi
	movl	$32, %edi
	call	_ZnwmPv
	movq	%rax, %rdi
	call	_ZNSt7__cxx1112basic_stringIcSt11char_traitsIcESaIcEEC1Ev@PLT
	nop
	leave
	.cfi_def_cfa 7, 8
	ret
	.cfi_endproc
.LFE3910:
	.size	_ZSt10_ConstructINSt7__cxx1112basic_stringIcSt11char_traitsIcESaIcEEEJEEvPT_DpOT0_, .-_ZSt10_ConstructINSt7__cxx1112basic_stringIcSt11char_traitsIcESaIcEEEJEEvPT_DpOT0_
	.section	.text._ZSt12__niter_baseIPNSt7__cxx1112basic_stringIcSt11char_traitsIcESaIcEEEET_S7_,"axG",@progbits,_ZSt12__niter_baseIPNSt7__cxx1112basic_stringIcSt11char_traitsIcESaIcEEEET_S7_,comdat
	.weak	_ZSt12__niter_baseIPNSt7__cxx1112basic_stringIcSt11char_traitsIcESaIcEEEET_S7_
	.type	_ZSt12__niter_baseIPNSt7__cxx1112basic_stringIcSt11char_traitsIcESaIcEEEET_S7_, @function
_ZSt12__niter_baseIPNSt7__cxx1112basic_stringIcSt11char_traitsIcESaIcEEEET_S7_:
.LFB3911:
	.cfi_startproc
	pushq	%rbp
	.cfi_def_cfa_offset 16
	.cfi_offset 6, -16
	movq	%rsp, %rbp
	.cfi_def_cfa_register 6
	movq	%rdi, -8(%rbp)
	movq	-8(%rbp), %rax
	popq	%rbp
	.cfi_def_cfa 7, 8
	ret
	.cfi_endproc
.LFE3911:
	.size	_ZSt12__niter_baseIPNSt7__cxx1112basic_stringIcSt11char_traitsIcESaIcEEEET_S7_, .-_ZSt12__niter_baseIPNSt7__cxx1112basic_stringIcSt11char_traitsIcESaIcEEEET_S7_
	.section	.text._ZSt14__relocate_a_1IPNSt7__cxx1112basic_stringIcSt11char_traitsIcESaIcEEES6_SaIS5_EET0_T_S9_S8_RT1_,"axG",@progbits,_ZSt14__relocate_a_1IPNSt7__cxx1112basic_stringIcSt11char_traitsIcESaIcEEES6_SaIS5_EET0_T_S9_S8_RT1_,comdat
	.weak	_ZSt14__relocate_a_1IPNSt7__cxx1112basic_stringIcSt11char_traitsIcESaIcEEES6_SaIS5_EET0_T_S9_S8_RT1_
	.type	_ZSt14__relocate_a_1IPNSt7__cxx1112basic_stringIcSt11char_traitsIcESaIcEEES6_SaIS5_EET0_T_S9_S8_RT1_, @function
_ZSt14__relocate_a_1IPNSt7__cxx1112basic_stringIcSt11char_traitsIcESaIcEEES6_SaIS5_EET0_T_S9_S8_RT1_:
.LFB3912:
	.cfi_startproc
	pushq	%rbp
	.cfi_def_cfa_offset 16
	.cfi_offset 6, -16
	movq	%rsp, %rbp
	.cfi_def_cfa_register 6
	pushq	%rbx
	subq	$56, %rsp
	.cfi_offset 3, -24
	movq	%rdi, -40(%rbp)
	movq	%rsi, -48(%rbp)
	movq	%rdx, -56(%rbp)
	movq	%rcx, -64(%rbp)
	movq	-56(%rbp), %rax
	movq	%rax, -24(%rbp)
.L371:
	movq	-40(%rbp), %rax
	cmpq	-48(%rbp), %rax
	je	.L370
	movq	-40(%rbp), %rax
	movq	%rax, %rdi
	call	_ZSt11__addressofINSt7__cxx1112basic_stringIcSt11char_traitsIcESaIcEEEEPT_RS6_
	movq	%rax, %rbx
	movq	-24(%rbp), %rax
	movq	%rax, %rdi
	call	_ZSt11__addressofINSt7__cxx1112basic_stringIcSt11char_traitsIcESaIcEEEEPT_RS6_
	movq	%rax, %rcx
	movq	-64(%rbp), %rax
	movq	%rax, %rdx
	movq	%rbx, %rsi
	movq	%rcx, %rdi
	call	_ZSt19__relocate_object_aINSt7__cxx1112basic_stringIcSt11char_traitsIcESaIcEEES5_SaIS5_EEvPT_PT0_RT1_
	addq	$32, -40(%rbp)
	addq	$32, -24(%rbp)
	jmp	.L371
.L370:
	movq	-24(%rbp), %rax
	addq	$56, %rsp
	popq	%rbx
	popq	%rbp
	.cfi_def_cfa 7, 8
	ret
	.cfi_endproc
.LFE3912:
	.size	_ZSt14__relocate_a_1IPNSt7__cxx1112basic_stringIcSt11char_traitsIcESaIcEEES6_SaIS5_EET0_T_S9_S8_RT1_, .-_ZSt14__relocate_a_1IPNSt7__cxx1112basic_stringIcSt11char_traitsIcESaIcEEES6_SaIS5_EET0_T_S9_S8_RT1_
	.section	.text._ZNK9__gnu_cxx13new_allocatorIN7HashMapINSt7__cxx1112basic_stringIcSt11char_traitsIcESaIcEEEiSt4hashIS7_EE7ElementEE8max_sizeEv,"axG",@progbits,_ZNK9__gnu_cxx13new_allocatorIN7HashMapINSt7__cxx1112basic_stringIcSt11char_traitsIcESaIcEEEiSt4hashIS7_EE7ElementEE8max_sizeEv,comdat
	.align 2
	.weak	_ZNK9__gnu_cxx13new_allocatorIN7HashMapINSt7__cxx1112basic_stringIcSt11char_traitsIcESaIcEEEiSt4hashIS7_EE7ElementEE8max_sizeEv
	.type	_ZNK9__gnu_cxx13new_allocatorIN7HashMapINSt7__cxx1112basic_stringIcSt11char_traitsIcESaIcEEEiSt4hashIS7_EE7ElementEE8max_sizeEv, @function
_ZNK9__gnu_cxx13new_allocatorIN7HashMapINSt7__cxx1112basic_stringIcSt11char_traitsIcESaIcEEEiSt4hashIS7_EE7ElementEE8max_sizeEv:
.LFB3923:
	.cfi_startproc
	pushq	%rbp
	.cfi_def_cfa_offset 16
	.cfi_offset 6, -16
	movq	%rsp, %rbp
	.cfi_def_cfa_register 6
	movq	%rdi, -8(%rbp)
	movabsq	$230584300921369395, %rax
	popq	%rbp
	.cfi_def_cfa 7, 8
	ret
	.cfi_endproc
.LFE3923:
	.size	_ZNK9__gnu_cxx13new_allocatorIN7HashMapINSt7__cxx1112basic_stringIcSt11char_traitsIcESaIcEEEiSt4hashIS7_EE7ElementEE8max_sizeEv, .-_ZNK9__gnu_cxx13new_allocatorIN7HashMapINSt7__cxx1112basic_stringIcSt11char_traitsIcESaIcEEEiSt4hashIS7_EE7ElementEE8max_sizeEv
	.section	.text._ZSt10_ConstructIN7HashMapINSt7__cxx1112basic_stringIcSt11char_traitsIcESaIcEEEiSt4hashIS6_EE7ElementEJEEvPT_DpOT0_,"axG",@progbits,_ZSt10_ConstructIN7HashMapINSt7__cxx1112basic_stringIcSt11char_traitsIcESaIcEEEiSt4hashIS6_EE7ElementEJEEvPT_DpOT0_,comdat
	.weak	_ZSt10_ConstructIN7HashMapINSt7__cxx1112basic_stringIcSt11char_traitsIcESaIcEEEiSt4hashIS6_EE7ElementEJEEvPT_DpOT0_
	.type	_ZSt10_ConstructIN7HashMapINSt7__cxx1112basic_stringIcSt11char_traitsIcESaIcEEEiSt4hashIS6_EE7ElementEJEEvPT_DpOT0_, @function
_ZSt10_ConstructIN7HashMapINSt7__cxx1112basic_stringIcSt11char_traitsIcESaIcEEEiSt4hashIS6_EE7ElementEJEEvPT_DpOT0_:
.LFB3924:
	.cfi_startproc
	pushq	%rbp
	.cfi_def_cfa_offset 16
	.cfi_offset 6, -16
	movq	%rsp, %rbp
	.cfi_def_cfa_register 6
	subq	$16, %rsp
	movq	%rdi, -8(%rbp)
	movq	-8(%rbp), %rax
	movq	%rax, %rsi
	movl	$40, %edi
	call	_ZnwmPv
	movq	%rax, %rdi
	call	_ZN7HashMapINSt7__cxx1112basic_stringIcSt11char_traitsIcESaIcEEEiSt4hashIS5_EE7ElementC1Ev
	nop
	leave
	.cfi_def_cfa 7, 8
	ret
	.cfi_endproc
.LFE3924:
	.size	_ZSt10_ConstructIN7HashMapINSt7__cxx1112basic_stringIcSt11char_traitsIcESaIcEEEiSt4hashIS6_EE7ElementEJEEvPT_DpOT0_, .-_ZSt10_ConstructIN7HashMapINSt7__cxx1112basic_stringIcSt11char_traitsIcESaIcEEEiSt4hashIS6_EE7ElementEJEEvPT_DpOT0_
	.section	.text._ZSt12__niter_baseIPN7HashMapINSt7__cxx1112basic_stringIcSt11char_traitsIcESaIcEEEiSt4hashIS6_EE7ElementEET_SC_,"axG",@progbits,_ZSt12__niter_baseIPN7HashMapINSt7__cxx1112basic_stringIcSt11char_traitsIcESaIcEEEiSt4hashIS6_EE7ElementEET_SC_,comdat
	.weak	_ZSt12__niter_baseIPN7HashMapINSt7__cxx1112basic_stringIcSt11char_traitsIcESaIcEEEiSt4hashIS6_EE7ElementEET_SC_
	.type	_ZSt12__niter_baseIPN7HashMapINSt7__cxx1112basic_stringIcSt11char_traitsIcESaIcEEEiSt4hashIS6_EE7ElementEET_SC_, @function
_ZSt12__niter_baseIPN7HashMapINSt7__cxx1112basic_stringIcSt11char_traitsIcESaIcEEEiSt4hashIS6_EE7ElementEET_SC_:
.LFB3925:
	.cfi_startproc
	pushq	%rbp
	.cfi_def_cfa_offset 16
	.cfi_offset 6, -16
	movq	%rsp, %rbp
	.cfi_def_cfa_register 6
	movq	%rdi, -8(%rbp)
	movq	-8(%rbp), %rax
	popq	%rbp
	.cfi_def_cfa 7, 8
	ret
	.cfi_endproc
.LFE3925:
	.size	_ZSt12__niter_baseIPN7HashMapINSt7__cxx1112basic_stringIcSt11char_traitsIcESaIcEEEiSt4hashIS6_EE7ElementEET_SC_, .-_ZSt12__niter_baseIPN7HashMapINSt7__cxx1112basic_stringIcSt11char_traitsIcESaIcEEEiSt4hashIS6_EE7ElementEET_SC_
	.section	.text._ZSt14__relocate_a_1IPN7HashMapINSt7__cxx1112basic_stringIcSt11char_traitsIcESaIcEEEiSt4hashIS6_EE7ElementESB_SaISA_EET0_T_SE_SD_RT1_,"axG",@progbits,_ZSt14__relocate_a_1IPN7HashMapINSt7__cxx1112basic_stringIcSt11char_traitsIcESaIcEEEiSt4hashIS6_EE7ElementESB_SaISA_EET0_T_SE_SD_RT1_,comdat
	.weak	_ZSt14__relocate_a_1IPN7HashMapINSt7__cxx1112basic_stringIcSt11char_traitsIcESaIcEEEiSt4hashIS6_EE7ElementESB_SaISA_EET0_T_SE_SD_RT1_
	.type	_ZSt14__relocate_a_1IPN7HashMapINSt7__cxx1112basic_stringIcSt11char_traitsIcESaIcEEEiSt4hashIS6_EE7ElementESB_SaISA_EET0_T_SE_SD_RT1_, @function
_ZSt14__relocate_a_1IPN7HashMapINSt7__cxx1112basic_stringIcSt11char_traitsIcESaIcEEEiSt4hashIS6_EE7ElementESB_SaISA_EET0_T_SE_SD_RT1_:
.LFB3926:
	.cfi_startproc
	pushq	%rbp
	.cfi_def_cfa_offset 16
	.cfi_offset 6, -16
	movq	%rsp, %rbp
	.cfi_def_cfa_register 6
	pushq	%rbx
	subq	$56, %rsp
	.cfi_offset 3, -24
	movq	%rdi, -40(%rbp)
	movq	%rsi, -48(%rbp)
	movq	%rdx, -56(%rbp)
	movq	%rcx, -64(%rbp)
	movq	-56(%rbp), %rax
	movq	%rax, -24(%rbp)
.L380:
	movq	-40(%rbp), %rax
	cmpq	-48(%rbp), %rax
	je	.L379
	movq	-40(%rbp), %rax
	movq	%rax, %rdi
	call	_ZSt11__addressofIN7HashMapINSt7__cxx1112basic_stringIcSt11char_traitsIcESaIcEEEiSt4hashIS6_EE7ElementEEPT_RSB_
	movq	%rax, %rbx
	movq	-24(%rbp), %rax
	movq	%rax, %rdi
	call	_ZSt11__addressofIN7HashMapINSt7__cxx1112basic_stringIcSt11char_traitsIcESaIcEEEiSt4hashIS6_EE7ElementEEPT_RSB_
	movq	%rax, %rcx
	movq	-64(%rbp), %rax
	movq	%rax, %rdx
	movq	%rbx, %rsi
	movq	%rcx, %rdi
	call	_ZSt19__relocate_object_aIN7HashMapINSt7__cxx1112basic_stringIcSt11char_traitsIcESaIcEEEiSt4hashIS6_EE7ElementESA_SaISA_EEvPT_PT0_RT1_
	addq	$40, -40(%rbp)
	addq	$40, -24(%rbp)
	jmp	.L380
.L379:
	movq	-24(%rbp), %rax
	addq	$56, %rsp
	popq	%rbx
	popq	%rbp
	.cfi_def_cfa 7, 8
	ret
	.cfi_endproc
.LFE3926:
	.size	_ZSt14__relocate_a_1IPN7HashMapINSt7__cxx1112basic_stringIcSt11char_traitsIcESaIcEEEiSt4hashIS6_EE7ElementESB_SaISA_EET0_T_SE_SD_RT1_, .-_ZSt14__relocate_a_1IPN7HashMapINSt7__cxx1112basic_stringIcSt11char_traitsIcESaIcEEEiSt4hashIS6_EE7ElementESB_SaISA_EET0_T_SE_SD_RT1_
	.section	.text._ZSt19__relocate_object_aINSt7__cxx1112basic_stringIcSt11char_traitsIcESaIcEEES5_SaIS5_EEvPT_PT0_RT1_,"axG",@progbits,_ZSt19__relocate_object_aINSt7__cxx1112basic_stringIcSt11char_traitsIcESaIcEEES5_SaIS5_EEvPT_PT0_RT1_,comdat
	.weak	_ZSt19__relocate_object_aINSt7__cxx1112basic_stringIcSt11char_traitsIcESaIcEEES5_SaIS5_EEvPT_PT0_RT1_
	.type	_ZSt19__relocate_object_aINSt7__cxx1112basic_stringIcSt11char_traitsIcESaIcEEES5_SaIS5_EEvPT_PT0_RT1_, @function
_ZSt19__relocate_object_aINSt7__cxx1112basic_stringIcSt11char_traitsIcESaIcEEES5_SaIS5_EEvPT_PT0_RT1_:
.LFB3930:
	.cfi_startproc
	pushq	%rbp
	.cfi_def_cfa_offset 16
	.cfi_offset 6, -16
	movq	%rsp, %rbp
	.cfi_def_cfa_register 6
	subq	$32, %rsp
	movq	%rdi, -8(%rbp)
	movq	%rsi, -16(%rbp)
	movq	%rdx, -24(%rbp)
	movq	-16(%rbp), %rax
	movq	%rax, %rdi
	call	_ZSt4moveIRNSt7__cxx1112basic_stringIcSt11char_traitsIcESaIcEEEEONSt16remove_referenceIT_E4typeEOS8_
	movq	%rax, %rdx
	movq	-8(%rbp), %rcx
	movq	-24(%rbp), %rax
	movq	%rcx, %rsi
	movq	%rax, %rdi
	call	_ZNSt16allocator_traitsISaINSt7__cxx1112basic_stringIcSt11char_traitsIcESaIcEEEEE9constructIS5_JS5_EEEvRS6_PT_DpOT0_
	movq	-16(%rbp), %rax
	movq	%rax, %rdi
	call	_ZSt11__addressofINSt7__cxx1112basic_stringIcSt11char_traitsIcESaIcEEEEPT_RS6_
	movq	%rax, %rdx
	movq	-24(%rbp), %rax
	movq	%rdx, %rsi
	movq	%rax, %rdi
	call	_ZNSt16allocator_traitsISaINSt7__cxx1112basic_stringIcSt11char_traitsIcESaIcEEEEE7destroyIS5_EEvRS6_PT_
	nop
	leave
	.cfi_def_cfa 7, 8
	ret
	.cfi_endproc
.LFE3930:
	.size	_ZSt19__relocate_object_aINSt7__cxx1112basic_stringIcSt11char_traitsIcESaIcEEES5_SaIS5_EEvPT_PT0_RT1_, .-_ZSt19__relocate_object_aINSt7__cxx1112basic_stringIcSt11char_traitsIcESaIcEEES5_SaIS5_EEvPT_PT0_RT1_
	.section	.text._ZN7HashMapINSt7__cxx1112basic_stringIcSt11char_traitsIcESaIcEEEiSt4hashIS5_EE7ElementC2Ev,"axG",@progbits,_ZN7HashMapINSt7__cxx1112basic_stringIcSt11char_traitsIcESaIcEEEiSt4hashIS5_EE7ElementC5Ev,comdat
	.align 2
	.weak	_ZN7HashMapINSt7__cxx1112basic_stringIcSt11char_traitsIcESaIcEEEiSt4hashIS5_EE7ElementC2Ev
	.type	_ZN7HashMapINSt7__cxx1112basic_stringIcSt11char_traitsIcESaIcEEEiSt4hashIS5_EE7ElementC2Ev, @function
_ZN7HashMapINSt7__cxx1112basic_stringIcSt11char_traitsIcESaIcEEEiSt4hashIS5_EE7ElementC2Ev:
.LFB3934:
	.cfi_startproc
	pushq	%rbp
	.cfi_def_cfa_offset 16
	.cfi_offset 6, -16
	movq	%rsp, %rbp
	.cfi_def_cfa_register 6
	subq	$16, %rsp
	movq	%rdi, -8(%rbp)
	movq	-8(%rbp), %rax
	movq	%rax, %rdi
	call	_ZNSt7__cxx1112basic_stringIcSt11char_traitsIcESaIcEEC1Ev@PLT
	movq	-8(%rbp), %rax
	movl	$0, 32(%rax)
	movq	-8(%rbp), %rax
	movb	$0, 36(%rax)
	movq	-8(%rbp), %rax
	movb	$1, 37(%rax)
	nop
	leave
	.cfi_def_cfa 7, 8
	ret
	.cfi_endproc
.LFE3934:
	.size	_ZN7HashMapINSt7__cxx1112basic_stringIcSt11char_traitsIcESaIcEEEiSt4hashIS5_EE7ElementC2Ev, .-_ZN7HashMapINSt7__cxx1112basic_stringIcSt11char_traitsIcESaIcEEEiSt4hashIS5_EE7ElementC2Ev
	.weak	_ZN7HashMapINSt7__cxx1112basic_stringIcSt11char_traitsIcESaIcEEEiSt4hashIS5_EE7ElementC1Ev
	.set	_ZN7HashMapINSt7__cxx1112basic_stringIcSt11char_traitsIcESaIcEEEiSt4hashIS5_EE7ElementC1Ev,_ZN7HashMapINSt7__cxx1112basic_stringIcSt11char_traitsIcESaIcEEEiSt4hashIS5_EE7ElementC2Ev
	.section	.text._ZSt19__relocate_object_aIN7HashMapINSt7__cxx1112basic_stringIcSt11char_traitsIcESaIcEEEiSt4hashIS6_EE7ElementESA_SaISA_EEvPT_PT0_RT1_,"axG",@progbits,_ZSt19__relocate_object_aIN7HashMapINSt7__cxx1112basic_stringIcSt11char_traitsIcESaIcEEEiSt4hashIS6_EE7ElementESA_SaISA_EEvPT_PT0_RT1_,comdat
	.weak	_ZSt19__relocate_object_aIN7HashMapINSt7__cxx1112basic_stringIcSt11char_traitsIcESaIcEEEiSt4hashIS6_EE7ElementESA_SaISA_EEvPT_PT0_RT1_
	.type	_ZSt19__relocate_object_aIN7HashMapINSt7__cxx1112basic_stringIcSt11char_traitsIcESaIcEEEiSt4hashIS6_EE7ElementESA_SaISA_EEvPT_PT0_RT1_, @function
_ZSt19__relocate_object_aIN7HashMapINSt7__cxx1112basic_stringIcSt11char_traitsIcESaIcEEEiSt4hashIS6_EE7ElementESA_SaISA_EEvPT_PT0_RT1_:
.LFB3936:
	.cfi_startproc
	pushq	%rbp
	.cfi_def_cfa_offset 16
	.cfi_offset 6, -16
	movq	%rsp, %rbp
	.cfi_def_cfa_register 6
	subq	$32, %rsp
	movq	%rdi, -8(%rbp)
	movq	%rsi, -16(%rbp)
	movq	%rdx, -24(%rbp)
	movq	-16(%rbp), %rax
	movq	%rax, %rdi
	call	_ZSt4moveIRN7HashMapINSt7__cxx1112basic_stringIcSt11char_traitsIcESaIcEEEiSt4hashIS6_EE7ElementEEONSt16remove_referenceIT_E4typeEOSD_
	movq	%rax, %rdx
	movq	-8(%rbp), %rcx
	movq	-24(%rbp), %rax
	movq	%rcx, %rsi
	movq	%rax, %rdi
	call	_ZNSt16allocator_traitsISaIN7HashMapINSt7__cxx1112basic_stringIcSt11char_traitsIcESaIcEEEiSt4hashIS6_EE7ElementEEE9constructISA_JSA_EEEvRSB_PT_DpOT0_
	movq	-16(%rbp), %rax
	movq	%rax, %rdi
	call	_ZSt11__addressofIN7HashMapINSt7__cxx1112basic_stringIcSt11char_traitsIcESaIcEEEiSt4hashIS6_EE7ElementEEPT_RSB_
	movq	%rax, %rdx
	movq	-24(%rbp), %rax
	movq	%rdx, %rsi
	movq	%rax, %rdi
	call	_ZNSt16allocator_traitsISaIN7HashMapINSt7__cxx1112basic_stringIcSt11char_traitsIcESaIcEEEiSt4hashIS6_EE7ElementEEE7destroyISA_EEvRSB_PT_
	nop
	leave
	.cfi_def_cfa 7, 8
	ret
	.cfi_endproc
.LFE3936:
	.size	_ZSt19__relocate_object_aIN7HashMapINSt7__cxx1112basic_stringIcSt11char_traitsIcESaIcEEEiSt4hashIS6_EE7ElementESA_SaISA_EEvPT_PT0_RT1_, .-_ZSt19__relocate_object_aIN7HashMapINSt7__cxx1112basic_stringIcSt11char_traitsIcESaIcEEEiSt4hashIS6_EE7ElementESA_SaISA_EEvPT_PT0_RT1_
	.section	.text._ZNSt16allocator_traitsISaINSt7__cxx1112basic_stringIcSt11char_traitsIcESaIcEEEEE9constructIS5_JS5_EEEvRS6_PT_DpOT0_,"axG",@progbits,_ZNSt16allocator_traitsISaINSt7__cxx1112basic_stringIcSt11char_traitsIcESaIcEEEEE9constructIS5_JS5_EEEvRS6_PT_DpOT0_,comdat
	.weak	_ZNSt16allocator_traitsISaINSt7__cxx1112basic_stringIcSt11char_traitsIcESaIcEEEEE9constructIS5_JS5_EEEvRS6_PT_DpOT0_
	.type	_ZNSt16allocator_traitsISaINSt7__cxx1112basic_stringIcSt11char_traitsIcESaIcEEEEE9constructIS5_JS5_EEEvRS6_PT_DpOT0_, @function
_ZNSt16allocator_traitsISaINSt7__cxx1112basic_stringIcSt11char_traitsIcESaIcEEEEE9constructIS5_JS5_EEEvRS6_PT_DpOT0_:
.LFB3937:
	.cfi_startproc
	pushq	%rbp
	.cfi_def_cfa_offset 16
	.cfi_offset 6, -16
	movq	%rsp, %rbp
	.cfi_def_cfa_register 6
	subq	$32, %rsp
	movq	%rdi, -8(%rbp)
	movq	%rsi, -16(%rbp)
	movq	%rdx, -24(%rbp)
	movq	-24(%rbp), %rax
	movq	%rax, %rdi
	call	_ZSt7forwardINSt7__cxx1112basic_stringIcSt11char_traitsIcESaIcEEEEOT_RNSt16remove_referenceIS6_E4typeE
	movq	%rax, %rdx
	movq	-16(%rbp), %rcx
	movq	-8(%rbp), %rax
	movq	%rcx, %rsi
	movq	%rax, %rdi
	call	_ZN9__gnu_cxx13new_allocatorINSt7__cxx1112basic_stringIcSt11char_traitsIcESaIcEEEE9constructIS6_JS6_EEEvPT_DpOT0_
	nop
	leave
	.cfi_def_cfa 7, 8
	ret
	.cfi_endproc
.LFE3937:
	.size	_ZNSt16allocator_traitsISaINSt7__cxx1112basic_stringIcSt11char_traitsIcESaIcEEEEE9constructIS5_JS5_EEEvRS6_PT_DpOT0_, .-_ZNSt16allocator_traitsISaINSt7__cxx1112basic_stringIcSt11char_traitsIcESaIcEEEEE9constructIS5_JS5_EEEvRS6_PT_DpOT0_
	.section	.text._ZNSt16allocator_traitsISaINSt7__cxx1112basic_stringIcSt11char_traitsIcESaIcEEEEE7destroyIS5_EEvRS6_PT_,"axG",@progbits,_ZNSt16allocator_traitsISaINSt7__cxx1112basic_stringIcSt11char_traitsIcESaIcEEEEE7destroyIS5_EEvRS6_PT_,comdat
	.weak	_ZNSt16allocator_traitsISaINSt7__cxx1112basic_stringIcSt11char_traitsIcESaIcEEEEE7destroyIS5_EEvRS6_PT_
	.type	_ZNSt16allocator_traitsISaINSt7__cxx1112basic_stringIcSt11char_traitsIcESaIcEEEEE7destroyIS5_EEvRS6_PT_, @function
_ZNSt16allocator_traitsISaINSt7__cxx1112basic_stringIcSt11char_traitsIcESaIcEEEEE7destroyIS5_EEvRS6_PT_:
.LFB3938:
	.cfi_startproc
	pushq	%rbp
	.cfi_def_cfa_offset 16
	.cfi_offset 6, -16
	movq	%rsp, %rbp
	.cfi_def_cfa_register 6
	subq	$16, %rsp
	movq	%rdi, -8(%rbp)
	movq	%rsi, -16(%rbp)
	movq	-16(%rbp), %rdx
	movq	-8(%rbp), %rax
	movq	%rdx, %rsi
	movq	%rax, %rdi
	call	_ZN9__gnu_cxx13new_allocatorINSt7__cxx1112basic_stringIcSt11char_traitsIcESaIcEEEE7destroyIS6_EEvPT_
	nop
	leave
	.cfi_def_cfa 7, 8
	ret
	.cfi_endproc
.LFE3938:
	.size	_ZNSt16allocator_traitsISaINSt7__cxx1112basic_stringIcSt11char_traitsIcESaIcEEEEE7destroyIS5_EEvRS6_PT_, .-_ZNSt16allocator_traitsISaINSt7__cxx1112basic_stringIcSt11char_traitsIcESaIcEEEEE7destroyIS5_EEvRS6_PT_
	.section	.text._ZSt4moveIRN7HashMapINSt7__cxx1112basic_stringIcSt11char_traitsIcESaIcEEEiSt4hashIS6_EE7ElementEEONSt16remove_referenceIT_E4typeEOSD_,"axG",@progbits,_ZSt4moveIRN7HashMapINSt7__cxx1112basic_stringIcSt11char_traitsIcESaIcEEEiSt4hashIS6_EE7ElementEEONSt16remove_referenceIT_E4typeEOSD_,comdat
	.weak	_ZSt4moveIRN7HashMapINSt7__cxx1112basic_stringIcSt11char_traitsIcESaIcEEEiSt4hashIS6_EE7ElementEEONSt16remove_referenceIT_E4typeEOSD_
	.type	_ZSt4moveIRN7HashMapINSt7__cxx1112basic_stringIcSt11char_traitsIcESaIcEEEiSt4hashIS6_EE7ElementEEONSt16remove_referenceIT_E4typeEOSD_, @function
_ZSt4moveIRN7HashMapINSt7__cxx1112basic_stringIcSt11char_traitsIcESaIcEEEiSt4hashIS6_EE7ElementEEONSt16remove_referenceIT_E4typeEOSD_:
.LFB3939:
	.cfi_startproc
	pushq	%rbp
	.cfi_def_cfa_offset 16
	.cfi_offset 6, -16
	movq	%rsp, %rbp
	.cfi_def_cfa_register 6
	movq	%rdi, -8(%rbp)
	movq	-8(%rbp), %rax
	popq	%rbp
	.cfi_def_cfa 7, 8
	ret
	.cfi_endproc
.LFE3939:
	.size	_ZSt4moveIRN7HashMapINSt7__cxx1112basic_stringIcSt11char_traitsIcESaIcEEEiSt4hashIS6_EE7ElementEEONSt16remove_referenceIT_E4typeEOSD_, .-_ZSt4moveIRN7HashMapINSt7__cxx1112basic_stringIcSt11char_traitsIcESaIcEEEiSt4hashIS6_EE7ElementEEONSt16remove_referenceIT_E4typeEOSD_
	.section	.text._ZNSt16allocator_traitsISaIN7HashMapINSt7__cxx1112basic_stringIcSt11char_traitsIcESaIcEEEiSt4hashIS6_EE7ElementEEE9constructISA_JSA_EEEvRSB_PT_DpOT0_,"axG",@progbits,_ZNSt16allocator_traitsISaIN7HashMapINSt7__cxx1112basic_stringIcSt11char_traitsIcESaIcEEEiSt4hashIS6_EE7ElementEEE9constructISA_JSA_EEEvRSB_PT_DpOT0_,comdat
	.weak	_ZNSt16allocator_traitsISaIN7HashMapINSt7__cxx1112basic_stringIcSt11char_traitsIcESaIcEEEiSt4hashIS6_EE7ElementEEE9constructISA_JSA_EEEvRSB_PT_DpOT0_
	.type	_ZNSt16allocator_traitsISaIN7HashMapINSt7__cxx1112basic_stringIcSt11char_traitsIcESaIcEEEiSt4hashIS6_EE7ElementEEE9constructISA_JSA_EEEvRSB_PT_DpOT0_, @function
_ZNSt16allocator_traitsISaIN7HashMapINSt7__cxx1112basic_stringIcSt11char_traitsIcESaIcEEEiSt4hashIS6_EE7ElementEEE9constructISA_JSA_EEEvRSB_PT_DpOT0_:
.LFB3940:
	.cfi_startproc
	pushq	%rbp
	.cfi_def_cfa_offset 16
	.cfi_offset 6, -16
	movq	%rsp, %rbp
	.cfi_def_cfa_register 6
	subq	$32, %rsp
	movq	%rdi, -8(%rbp)
	movq	%rsi, -16(%rbp)
	movq	%rdx, -24(%rbp)
	movq	-24(%rbp), %rax
	movq	%rax, %rdi
	call	_ZSt7forwardIN7HashMapINSt7__cxx1112basic_stringIcSt11char_traitsIcESaIcEEEiSt4hashIS6_EE7ElementEEOT_RNSt16remove_referenceISB_E4typeE
	movq	%rax, %rdx
	movq	-16(%rbp), %rcx
	movq	-8(%rbp), %rax
	movq	%rcx, %rsi
	movq	%rax, %rdi
	call	_ZN9__gnu_cxx13new_allocatorIN7HashMapINSt7__cxx1112basic_stringIcSt11char_traitsIcESaIcEEEiSt4hashIS7_EE7ElementEE9constructISB_JSB_EEEvPT_DpOT0_
	nop
	leave
	.cfi_def_cfa 7, 8
	ret
	.cfi_endproc
.LFE3940:
	.size	_ZNSt16allocator_traitsISaIN7HashMapINSt7__cxx1112basic_stringIcSt11char_traitsIcESaIcEEEiSt4hashIS6_EE7ElementEEE9constructISA_JSA_EEEvRSB_PT_DpOT0_, .-_ZNSt16allocator_traitsISaIN7HashMapINSt7__cxx1112basic_stringIcSt11char_traitsIcESaIcEEEiSt4hashIS6_EE7ElementEEE9constructISA_JSA_EEEvRSB_PT_DpOT0_
	.section	.text._ZNSt16allocator_traitsISaIN7HashMapINSt7__cxx1112basic_stringIcSt11char_traitsIcESaIcEEEiSt4hashIS6_EE7ElementEEE7destroyISA_EEvRSB_PT_,"axG",@progbits,_ZNSt16allocator_traitsISaIN7HashMapINSt7__cxx1112basic_stringIcSt11char_traitsIcESaIcEEEiSt4hashIS6_EE7ElementEEE7destroyISA_EEvRSB_PT_,comdat
	.weak	_ZNSt16allocator_traitsISaIN7HashMapINSt7__cxx1112basic_stringIcSt11char_traitsIcESaIcEEEiSt4hashIS6_EE7ElementEEE7destroyISA_EEvRSB_PT_
	.type	_ZNSt16allocator_traitsISaIN7HashMapINSt7__cxx1112basic_stringIcSt11char_traitsIcESaIcEEEiSt4hashIS6_EE7ElementEEE7destroyISA_EEvRSB_PT_, @function
_ZNSt16allocator_traitsISaIN7HashMapINSt7__cxx1112basic_stringIcSt11char_traitsIcESaIcEEEiSt4hashIS6_EE7ElementEEE7destroyISA_EEvRSB_PT_:
.LFB3941:
	.cfi_startproc
	pushq	%rbp
	.cfi_def_cfa_offset 16
	.cfi_offset 6, -16
	movq	%rsp, %rbp
	.cfi_def_cfa_register 6
	subq	$16, %rsp
	movq	%rdi, -8(%rbp)
	movq	%rsi, -16(%rbp)
	movq	-16(%rbp), %rdx
	movq	-8(%rbp), %rax
	movq	%rdx, %rsi
	movq	%rax, %rdi
	call	_ZN9__gnu_cxx13new_allocatorIN7HashMapINSt7__cxx1112basic_stringIcSt11char_traitsIcESaIcEEEiSt4hashIS7_EE7ElementEE7destroyISB_EEvPT_
	nop
	leave
	.cfi_def_cfa 7, 8
	ret
	.cfi_endproc
.LFE3941:
	.size	_ZNSt16allocator_traitsISaIN7HashMapINSt7__cxx1112basic_stringIcSt11char_traitsIcESaIcEEEiSt4hashIS6_EE7ElementEEE7destroyISA_EEvRSB_PT_, .-_ZNSt16allocator_traitsISaIN7HashMapINSt7__cxx1112basic_stringIcSt11char_traitsIcESaIcEEEiSt4hashIS6_EE7ElementEEE7destroyISA_EEvRSB_PT_
	.section	.text._ZSt7forwardINSt7__cxx1112basic_stringIcSt11char_traitsIcESaIcEEEEOT_RNSt16remove_referenceIS6_E4typeE,"axG",@progbits,_ZSt7forwardINSt7__cxx1112basic_stringIcSt11char_traitsIcESaIcEEEEOT_RNSt16remove_referenceIS6_E4typeE,comdat
	.weak	_ZSt7forwardINSt7__cxx1112basic_stringIcSt11char_traitsIcESaIcEEEEOT_RNSt16remove_referenceIS6_E4typeE
	.type	_ZSt7forwardINSt7__cxx1112basic_stringIcSt11char_traitsIcESaIcEEEEOT_RNSt16remove_referenceIS6_E4typeE, @function
_ZSt7forwardINSt7__cxx1112basic_stringIcSt11char_traitsIcESaIcEEEEOT_RNSt16remove_referenceIS6_E4typeE:
.LFB3942:
	.cfi_startproc
	pushq	%rbp
	.cfi_def_cfa_offset 16
	.cfi_offset 6, -16
	movq	%rsp, %rbp
	.cfi_def_cfa_register 6
	movq	%rdi, -8(%rbp)
	movq	-8(%rbp), %rax
	popq	%rbp
	.cfi_def_cfa 7, 8
	ret
	.cfi_endproc
.LFE3942:
	.size	_ZSt7forwardINSt7__cxx1112basic_stringIcSt11char_traitsIcESaIcEEEEOT_RNSt16remove_referenceIS6_E4typeE, .-_ZSt7forwardINSt7__cxx1112basic_stringIcSt11char_traitsIcESaIcEEEEOT_RNSt16remove_referenceIS6_E4typeE
	.section	.text._ZN9__gnu_cxx13new_allocatorINSt7__cxx1112basic_stringIcSt11char_traitsIcESaIcEEEE9constructIS6_JS6_EEEvPT_DpOT0_,"axG",@progbits,_ZN9__gnu_cxx13new_allocatorINSt7__cxx1112basic_stringIcSt11char_traitsIcESaIcEEEE9constructIS6_JS6_EEEvPT_DpOT0_,comdat
	.align 2
	.weak	_ZN9__gnu_cxx13new_allocatorINSt7__cxx1112basic_stringIcSt11char_traitsIcESaIcEEEE9constructIS6_JS6_EEEvPT_DpOT0_
	.type	_ZN9__gnu_cxx13new_allocatorINSt7__cxx1112basic_stringIcSt11char_traitsIcESaIcEEEE9constructIS6_JS6_EEEvPT_DpOT0_, @function
_ZN9__gnu_cxx13new_allocatorINSt7__cxx1112basic_stringIcSt11char_traitsIcESaIcEEEE9constructIS6_JS6_EEEvPT_DpOT0_:
.LFB3943:
	.cfi_startproc
	pushq	%rbp
	.cfi_def_cfa_offset 16
	.cfi_offset 6, -16
	movq	%rsp, %rbp
	.cfi_def_cfa_register 6
	pushq	%rbx
	subq	$40, %rsp
	.cfi_offset 3, -24
	movq	%rdi, -24(%rbp)
	movq	%rsi, -32(%rbp)
	movq	%rdx, -40(%rbp)
	movq	-40(%rbp), %rax
	movq	%rax, %rdi
	call	_ZSt7forwardINSt7__cxx1112basic_stringIcSt11char_traitsIcESaIcEEEEOT_RNSt16remove_referenceIS6_E4typeE
	movq	%rax, %rbx
	movq	-32(%rbp), %rax
	movq	%rax, %rsi
	movl	$32, %edi
	call	_ZnwmPv
	movq	%rbx, %rsi
	movq	%rax, %rdi
	call	_ZNSt7__cxx1112basic_stringIcSt11char_traitsIcESaIcEEC1EOS4_@PLT
	nop
	addq	$40, %rsp
	popq	%rbx
	popq	%rbp
	.cfi_def_cfa 7, 8
	ret
	.cfi_endproc
.LFE3943:
	.size	_ZN9__gnu_cxx13new_allocatorINSt7__cxx1112basic_stringIcSt11char_traitsIcESaIcEEEE9constructIS6_JS6_EEEvPT_DpOT0_, .-_ZN9__gnu_cxx13new_allocatorINSt7__cxx1112basic_stringIcSt11char_traitsIcESaIcEEEE9constructIS6_JS6_EEEvPT_DpOT0_
	.section	.text._ZN9__gnu_cxx13new_allocatorINSt7__cxx1112basic_stringIcSt11char_traitsIcESaIcEEEE7destroyIS6_EEvPT_,"axG",@progbits,_ZN9__gnu_cxx13new_allocatorINSt7__cxx1112basic_stringIcSt11char_traitsIcESaIcEEEE7destroyIS6_EEvPT_,comdat
	.align 2
	.weak	_ZN9__gnu_cxx13new_allocatorINSt7__cxx1112basic_stringIcSt11char_traitsIcESaIcEEEE7destroyIS6_EEvPT_
	.type	_ZN9__gnu_cxx13new_allocatorINSt7__cxx1112basic_stringIcSt11char_traitsIcESaIcEEEE7destroyIS6_EEvPT_, @function
_ZN9__gnu_cxx13new_allocatorINSt7__cxx1112basic_stringIcSt11char_traitsIcESaIcEEEE7destroyIS6_EEvPT_:
.LFB3944:
	.cfi_startproc
	pushq	%rbp
	.cfi_def_cfa_offset 16
	.cfi_offset 6, -16
	movq	%rsp, %rbp
	.cfi_def_cfa_register 6
	subq	$16, %rsp
	movq	%rdi, -8(%rbp)
	movq	%rsi, -16(%rbp)
	movq	-16(%rbp), %rax
	movq	%rax, %rdi
